L166 LINKER/LOCATER V5.25                                                               07/29/2021  08:44:04  PAGE 1


L166 LINKER/LOCATER V5.25, INVOKED BY:
D:\PROGRAM FILES (X86)\KEIL4\C166\BIN\L166.EXE .\obj\Start_V3.obj, .\obj\MAIN.obj, .\obj\SCS.obj, .\obj\IO.obj, .\obj\U2
>> C0.obj, .\obj\USIC2.obj, .\obj\GPT1.obj, .\obj\GPT2.obj, .\obj\WDT.obj, .\obj\CC2.obj, .\obj\CAN.obj, .\obj\DIO.obj, 
>> .\obj\Delay.obj, .\obj\AIO.obj, .\obj\glable.obj, .\obj\canDrive.obj, .\obj\protocol.obj, .\obj\pid.obj, .\obj\PWM.ob
>> j, .\obj\global.obj, .\obj\init.obj, .\obj\input.obj, .\obj\self_check.obj, .\obj\brake_control.obj TO .\obj\CF_EBCU 
>> PRINT (.\list\CF_EBCU.m66) CLASSES (ICODE (0XC00000-0XC0EFFF), NCODE (0XC10000-0XC1FFFF), FCONST (0XC00000-0XC0EFFF, 
>> 0XC10000-0XCBFFFF), HCONST (0XC00000-0XC0EFFF, 0XC10000-0XCBFFFF), XCONST (0XC00000-0XC0EFFF, 0XC10000-0XCBFFFF), NCO
>> NST (0XC04000-0XC07FFF), NDATA (0XE00000-0XE03FFF), NDATA0 (0XE00000-0XE03FFF), SDATA (0XF600-0XFDFF), SDATA0 (0XF600
>> -0XFDFF), IDATA (0XF600-0XFDFF), IDATA0 (0XF600-0XFDFF), FDATA (0XE00000-0XE0FFFF), FDATA0 (0XE00000-0XE0FFFF), HDATA
>>  (0XE00000-0XE0FFFF), HDATA0 (0XE00000-0XE0FFFF), XDATA (0XE00000-0XE0FFFF), XDATA0 (0XE00000-0XE0FFFF)) CINITTAB (0X
>> C10000-0XCBFFFF)


CPU TYPE:     C167 or derivative
CPU MODE:     SEGMENTED
MEMORY MODEL: SMALL


INPUT MODULES INCLUDED:
  .\obj\Start_V3.obj (?C_STARTUP)
         COMMENT TYPE 128: A166 V5.36.0.1
  .\obj\MAIN.obj (MAIN)
         COMMENT TYPE 128: C166 V7.53.0.0
  .\obj\SCS.obj (SCS)
         COMMENT TYPE 128: C166 V7.53.0.0
  .\obj\IO.obj (IO)
         COMMENT TYPE 128: C166 V7.53.0.0
  .\obj\U2C0.obj (U2C0)
         COMMENT TYPE 128: C166 V7.53.0.0
  .\obj\USIC2.obj (USIC2)
         COMMENT TYPE 128: C166 V7.53.0.0
  .\obj\GPT1.obj (GPT1)
         COMMENT TYPE 128: C166 V7.53.0.0
  .\obj\GPT2.obj (GPT2)
         COMMENT TYPE 128: C166 V7.53.0.0
  .\obj\WDT.obj (WDT)
         COMMENT TYPE 128: C166 V7.53.0.0
  .\obj\CC2.obj (CC2)
         COMMENT TYPE 128: C166 V7.53.0.0
  .\obj\CAN.obj (CAN)
         COMMENT TYPE 128: C166 V7.53.0.0
  .\obj\DIO.obj (DIO)
         COMMENT TYPE 128: C166 V7.53.0.0
  .\obj\Delay.obj (DELAY)
         COMMENT TYPE 128: C166 V7.53.0.0
  .\obj\AIO.obj (AIO)
         COMMENT TYPE 128: C166 V7.53.0.0
  .\obj\glable.obj (GLABLE)
         COMMENT TYPE 128: C166 V7.53.0.0
  .\obj\canDrive.obj (CANDRIVE)
         COMMENT TYPE 128: C166 V7.53.0.0
  .\obj\protocol.obj (PROTOCOL)
         COMMENT TYPE 128: C166 V7.53.0.0
  .\obj\pid.obj (PID)
         COMMENT TYPE 128: C166 V7.53.0.0
  .\obj\PWM.obj (PWM)
         COMMENT TYPE 128: C166 V7.53.0.0
  .\obj\global.obj (GLOBAL)
L166 LINKER/LOCATER V5.25                                                             07/29/2021  08:44:04  PAGE 2


         COMMENT TYPE 128: C166 V7.53.0.0
  .\obj\init.obj (INIT)
         COMMENT TYPE 128: C166 V7.53.0.0
  .\obj\input.obj (INPUT)
         COMMENT TYPE 128: C166 V7.53.0.0
  .\obj\self_check.obj (SELF_CHECK)
         COMMENT TYPE 128: C166 V7.53.0.0
  .\obj\brake_control.obj (BRAKE_CONTROL)
         COMMENT TYPE 128: C166 V7.53.0.0
  D:\PROGRAM FILES (X86)\KEIL4\C166\LIB\C167S.LIB (?C_ULDIV)
         COMMENT TYPE 128: A166 V5.33
  D:\PROGRAM FILES (X86)\KEIL4\C166\LIB\C167S.LIB (?C_SLDIV)
         COMMENT TYPE 128: A166 V5.33
  D:\PROGRAM FILES (X86)\KEIL4\C166\LIB\C167S.LIB (?C_ENDINIT)
         COMMENT TYPE 128: A166 V5.33


INTERRUPT PROCEDURES OF MODULE:  .\obj\CF_EBCU (?C_STARTUP)


INTERRUPT PROCEDURE                 INT  INTERRUPT NAME
=======================================================
?C_RESET                              0  RESET
U2C0_SSC_vi0IC                       92  ---  
GPT1_viTmr3                          33  ---  
GPT1_viTmr2                          32  ---  
CC2_viTmr7                           38  ---  
CAN_viSRN0                           64  ---  
CAN_viSRN1                           65  ---  


MEMORY MAP OF MODULE:  .\obj\CF_EBCU (?C_STARTUP)


START     STOP      LENGTH    TYPE  RTYP  ALIGN  TGR  GRP  COMB  CLASS   SECTION NAME
=====================================================================================
00F600H   00F7FFH   000200H   DATA  REL   WORD   ---    2  PUBL  IDATA   ?C_SYSSTACK
00F800H   00F80BH   00000CH   DATA  REL   WORD   ---    2  PUBL  IDATA0  ?ID0?PID
00FC00H   00FC1FH   000020H   DATA  ---   BYTE   ---  ---  ---   *REG*   ?C_MAINREGISTERS
C00000H   C00003H   000004H   ---   ---   ---    ---  ---  ---   * INTVECTOR TABLE *
C00080H   C00087H   000008H   ---   ---   ---    ---  ---  ---   * INTVECTOR TABLE *
C00098H   C0009BH   000004H   ---   ---   ---    ---  ---  ---   * INTVECTOR TABLE *
C00100H   C00107H   000008H   ---   ---   ---    ---  ---  ---   * INTVECTOR TABLE *
C00170H   C00173H   000004H   ---   ---   ---    ---  ---  ---   * INTVECTOR TABLE *
C00174H   C0036BH   0001F8H   CODE  REL   WORD   ---  ---  PRIV  ICODE   ?C_STARTUP_CODE
C04000H   C04077H   000078H   DATA  REL   WORD   ---    4  PUBL  NCONST  ?NC?INPUT
C04078H   C04087H   000010H   DATA  REL   WORD   ---    4  PUBL  NCONST  ?NC?AIO
C10000H   C1041BH   00041CH   XDATA REL   WORD   ---  ---  GLOB  ---     ?C_INITSEC
C1041CH   C1047DH   000062H   CONST ABS   WORD   ---  ---  PRIV  ---     ?C_CLRMEMSEC
C1047EH   C11151H   000CD4H   CODE  REL   WORD   ---    3  PUBL  NCODE   ?PR?CAN
C11152H   C11A55H   000904H   CODE  REL   WORD   ---    3  PUBL  NCODE   ?PR?INPUT
C11A56H   C12119H   0006C4H   CODE  REL   WORD   ---    3  PUBL  NCODE   ?PR?PID
C1211AH   C1266DH   000554H   CODE  REL   WORD   ---    3  PUBL  NCODE   ?PR?SCS
C1266EH   C12AC7H   00045AH   CODE  REL   WORD   ---    3  PUBL  NCODE   ?PR?DIO
C12AC8H   C12CB9H   0001F2H   CODE  REL   WORD   ---    3  PUBL  NCODE   ?PR?PROTOCOL
C12CBAH   C12EA9H   0001F0H   CODE  REL   WORD   ---    3  PUBL  NCODE   ?PR?CC2
C12EAAH   C13097H   0001EEH   CODE  REL   WORD   ---    3  PUBL  NCODE   ?PR?MAIN
L166 LINKER/LOCATER V5.25                                                             07/29/2021  08:44:04  PAGE 3


C13098H   C1325BH   0001C4H   CODE  REL   WORD   ---    3  PUBL  NCODE   ?PR?AIO
C1325CH   C133FDH   0001A2H   CODE  REL   WORD   ---    3  PUBL  NCODE   ?PR?CANDRIVE
C133FEH   C13557H   00015AH   CODE  REL   WORD   ---    3  PUBL  NCODE   ?PR?U2C0
C13558H   C13657H   000100H   CODE  REL   WORD   ---    3  PUBL  NCODE   ?PR?BRAKE_CONTROL
C13658H   C1371FH   0000C8H   CODE  REL   WORD   ---    3  PUBL  NCODE   ?C_LIB_CODE
C13720H   C13799H   00007AH   CODE  REL   WORD   ---    3  PUBL  NCODE   ?PR?IO
C1379AH   C137EFH   000056H   CODE  REL   WORD   ---    3  PUBL  NCODE   ?PR?GPT1
C137F0H   C1381BH   00002CH   CODE  REL   WORD   ---    3  PUBL  NCODE   ?PR?DELAY
C1381CH   C13845H   00002AH   CODE  REL   WORD   ---    3  PUBL  NCODE   ?PR?USIC2
C13846H   C13869H   000024H   CODE  REL   WORD   ---    3  PUBL  NCODE   ?PR?SELF_CHECK
C1386AH   C1388BH   000022H   CODE  REL   WORD   ---    3  PUBL  NCODE   ?PR?GPT2
C1388CH   C138A3H   000018H   CODE  REL   WORD   ---    3  PUBL  NCODE   ?PR?WDT
C138A4H   C138B9H   000016H   CODE  REL   WORD   ---    3  PUBL  NCODE   ?PR?INIT
E00000H   E001FFH   000200H   DATA  REL   WORD   ---    1  PUBL  NDATA   ?C_USERSTACK
E00200H   E0021FH   000020H   DATA  REL   WORD   ---    1  PUBL  NDATA   ?C_USERSTACK1
E00220H   E0023FH   000020H   DATA  REL   WORD   ---    1  PUBL  NDATA   ?C_USERSTACK2
E00240H   E0031FH   0000E0H   DATA  REL   WORD   ---    1  PUBL  NDATA0  ?ND0?GLOBAL
E00320H   E003D4H   0000B5H   DATA  REL   WORD   ---    1  PUBL  NDATA0  ?ND0?AIO
E003D5H   E003D5H   000001H   DATA  REL   BYTE   ---    1  PUBL  NDATA0  ?ND0?IO
E003D6H   E00476H   0000A1H   DATA  REL   WORD   ---    1  PUBL  NDATA0  ?ND0?INPUT
E00477H   E00477H   000001H   DATA  REL   BYTE   ---    1  PUBL  NDATA0  ?ND0?USIC2
E00478H   E004F0H   000079H   DATA  REL   WORD   ---    1  PUBL  NDATA0  ?ND0?MAIN
E004F1H   E004F1H   000001H   DATA  REL   BYTE   ---    1  PUBL  NDATA0  ?ND0?GPT2
E004F2H   E00537H   000046H   DATA  REL   WORD   ---    1  PUBL  NDATA0  ?ND0?PID
E00538H   E00562H   00002BH   DATA  REL   WORD   ---    1  PUBL  NDATA0  ?ND0?GLABLE
E00563H   E00563H   000001H   DATA  REL   BYTE   ---    1  PUBL  NDATA0  ?ND0?WDT
E00564H   E0057CH   000019H   DATA  REL   WORD   ---    1  PUBL  NDATA0  ?ND0?CANDRIVE
E0057DH   E0057DH   000001H   DATA  REL   BYTE   ---    1  PUBL  NDATA0  ?ND0?INIT
E0057EH   E00588H   00000BH   DATA  REL   WORD   ---    1  PUBL  NDATA0  ?ND0?SCS
E0058AH   E00592H   000009H   DATA  REL   WORD   ---    1  PUBL  NDATA0  ?ND0?PROTOCOL
E00593H   E00597H   000005H   DATA  REL   BYTE   ---    1  PUBL  NDATA0  ?ND0?CC2
E00598H   E0059CH   000005H   DATA  REL   WORD   ---    1  PUBL  NDATA0  ?ND0?SELF_CHECK
E0059EH   E005A2H   000005H   DATA  REL   WORD   ---    1  PUBL  NDATA0  ?ND0?BRAKE_CONTROL
E005A3H   E005A6H   000004H   DATA  REL   BYTE   ---    1  PUBL  NDATA0  ?ND0?PWM
E005A7H   E005A9H   000003H   DATA  REL   BYTE   ---    1  PUBL  NDATA0  ?ND0?GPT1
E005AAH   E005ACH   000003H   DATA  REL   BYTE   ---    1  PUBL  NDATA0  ?ND0?CAN
E005AEH   E005B0H   000003H   DATA  REL   WORD   ---    1  PUBL  NDATA0  ?ND0?DIO
E005B1H   E005B2H   000002H   DATA  REL   BYTE   ---    1  PUBL  NDATA0  ?ND0?U2C0
E005B3H   E005B4H   000002H   DATA  REL   BYTE   ---    1  PUBL  NDATA0  ?ND0?DELAY



GROUP LIST OF MODULE:  .\obj\CF_EBCU (?C_STARTUP)


GROUP NAME                           TYPE  TGR  GRP  CLASS       SECTION NAME
=============================================================================
NDATA                                DATA  ---    1  NDATA       ?C_USERSTACK
                                                     NDATA       ?C_USERSTACK1
                                                     NDATA       ?C_USERSTACK2
                                                     NDATA0      ?ND0?MAIN
                                                     NDATA0      ?ND0?SCS
                                                     NDATA0      ?ND0?IO
                                                     NDATA0      ?ND0?U2C0
                                                     NDATA0      ?ND0?USIC2
                                                     NDATA0      ?ND0?GPT1
                                                     NDATA0      ?ND0?GPT2
L166 LINKER/LOCATER V5.25                                                             07/29/2021  08:44:04  PAGE 4


                                                     NDATA0      ?ND0?WDT
                                                     NDATA0      ?ND0?CC2
                                                     NDATA0      ?ND0?CAN
                                                     NDATA0      ?ND0?DIO
                                                     NDATA0      ?ND0?DELAY
                                                     NDATA0      ?ND0?AIO
                                                     NDATA0      ?ND0?GLABLE
                                                     NDATA0      ?ND0?CANDRIVE
                                                     NDATA0      ?ND0?PROTOCOL
                                                     NDATA0      ?ND0?PID
                                                     NDATA0      ?ND0?PWM
                                                     NDATA0      ?ND0?GLOBAL
                                                     NDATA0      ?ND0?INIT
                                                     NDATA0      ?ND0?INPUT
                                                     NDATA0      ?ND0?SELF_CHECK
                                                     NDATA0      ?ND0?BRAKE_CONTROL

SDATA                                DATA  ---    2  IDATA       ?C_SYSSTACK
                                                     IDATA0      ?ID0?PID

NCODE                                CODE  ---    3  NCODE       ?PR?MAIN
                                                     NCODE       ?PR?SCS
                                                     NCODE       ?PR?IO
                                                     NCODE       ?PR?U2C0
                                                     NCODE       ?PR?USIC2
                                                     NCODE       ?PR?GPT1
                                                     NCODE       ?PR?GPT2
                                                     NCODE       ?PR?WDT
                                                     NCODE       ?PR?CC2
                                                     NCODE       ?PR?CAN
                                                     NCODE       ?PR?DIO
                                                     NCODE       ?PR?DELAY
                                                     NCODE       ?PR?AIO
                                                     NCODE       ?PR?CANDRIVE
                                                     NCODE       ?PR?PROTOCOL
                                                     NCODE       ?PR?PID
                                                     NCODE       ?PR?INIT
                                                     NCODE       ?PR?INPUT
                                                     NCODE       ?PR?SELF_CHECK
                                                     NCODE       ?PR?BRAKE_CONTROL
                                                     NCODE       ?C_LIB_CODE

NCONST                               DATA  ---    4  NCONST      ?NC?AIO
                                                     NCONST      ?NC?INPUT




PUBLIC SYMBOLS OF MODULE:  .\obj\CF_EBCU (?C_STARTUP)


      VALUE       PUBLIC SYMBOL NAME               REP   TGR  CLASS   SECTION
      =======================================================================
      C1041CH     ?C_CLRMEMSECSTART                VAR   ---  ---     ---
      C1041AH     ?C_ENDINIT                       VAR   ---  ---     ?C_INITSEC
      C10000H     ?C_INITSECSTART                  VAR   ---  ---     ---
      C00000H     ?C_NCONSTBASE                    CONST ---  ---     ---
L166 LINKER/LOCATER V5.25                                                             07/29/2021  08:44:04  PAGE 5


      0000C0H     ?C_NCONSTBASESEG                 CONST ---  ---     ---
      DF8000H     ?C_NDATABASE                     CONST ---  ---     ---
      0000DFH     ?C_NDATABASESEG                  CONST ---  ---     ---
      000000H     ?C_PAGEDPP0                      CONST ---  ---     ---
      000301H     ?C_PAGEDPP1                      CONST ---  ---     ---
      000380H     ?C_PAGEDPP2                      CONST ---  ---     ---
      C136EAH     ?C_SLDIV                         LABEL ---  NCODE   ?C_LIB_CODE
      C00174H     ?C_STARTUP                       LABEL ---  ICODE   ?C_STARTUP_CODE
      00F600H     ?C_SYSSTKBOT                     VAR   ---  IDATA   ?C_SYSSTACK
      00F800H     ?C_SYSSTKTOP                     VAR   ---  IDATA   ?C_SYSSTACK
      C13658H     ?C_ULDIV                         LABEL ---  NCODE   ?C_LIB_CODE
      E00000H     ?C_USRSTKBOT                     VAR   ---  NDATA   ?C_USERSTACK
      000000H     ?L?VECSC                         CONST ---  ---     ---
      C130D8H     ADConvert                        LABEL ---  NCODE   ?PR?AIO
      C127A8H     ADDR_IO_PORT_IN                  LABEL ---  NCODE   ?PR?DIO
      C12746H     ADDR_IO_PORT_OUT                 LABEL ---  NCODE   ?PR?DIO
      E0053AH     AD_Data                          VAR   ---  NDATA0  ?ND0?GLABLE
      C129FCH     ALLDIN                           LABEL ---  NCODE   ?PR?DIO
      C138A4H     BCU_Init                         LABEL ---  NCODE   ?PR?INIT
      C13652H     BCU_Pusher_Logic                 LABEL ---  NCODE   ?PR?BRAKE_CONTROL
      C13868H     BCU_Self_Check                   LABEL ---  NCODE   ?PR?SELF_CHECK
      C13654H     BCU_Slave_Logic                  LABEL ---  NCODE   ?PR?BRAKE_CONTROL
      E005ACH     CANA_RecvFlag                    VAR   ---  NDATA0  ?ND0?CAN
      E005ABH     CANB_RecvFlag                    VAR   ---  NDATA0  ?ND0?CAN
      E004F0H     CAN_OperateFlag                  VAR   ---  NDATA0  ?ND0?MAIN
      C10DA0H     CAN_vConfigMsgObj                LABEL ---  NCODE   ?PR?CAN
      C10C48H     CAN_vGetMsgObj                   LABEL ---  NCODE   ?PR?CAN
      C1047EH     CAN_vInit                        LABEL ---  NCODE   ?PR?CAN
      C10F56H     CAN_vLoadData                    LABEL ---  NCODE   ?PR?CAN
      C10D8CH     CAN_vTransmit                    LABEL ---  NCODE   ?PR?CAN
      C10FBAH     CAN_viSRN0                       LABEL ---  NCODE   ?PR?CAN
      C11084H     CAN_viSRN1                       LABEL ---  NCODE   ?PR?CAN
      E0055EH     CANdownloadFlag                  VAR   ---  NDATA0  ?ND0?GLABLE
      C12CBAH     CC2_vInit                        LABEL ---  NCODE   ?PR?CC2
      C12E3EH     CC2_viTmr7                       LABEL ---  NCODE   ?PR?CC2
      E00557H     CPUBoardLife                     VAR   ---  NDATA0  ?ND0?GLABLE
      E00478H     CPUTime                          VAR   ---  NDATA0  ?ND0?MAIN
      E00496H     CPUtime_Addr                     VAR   ---  NDATA0  ?ND0?MAIN
      C130BCH     CSAD                             LABEL ---  NCODE   ?PR?AIO
      C12C8EH     CanDispatch                      LABEL ---  NCODE   ?PR?PROTOCOL
      E005A7H     CycleFlag                        VAR   ---  NDATA0  ?ND0?GPT1
      C126E4H     DATA_IO_PORT_IN                  LABEL ---  NCODE   ?PR?DIO
      C12682H     DATA_IO_PORT_OUT                 LABEL ---  NCODE   ?PR?DIO
      E0054CH     DA_DATA                          VAR   ---  NDATA0  ?ND0?GLABLE
      E0028EH     DI01                             VAR   ---  NDATA0  ?ND0?GLOBAL
      E00276H     DI02                             VAR   ---  NDATA0  ?ND0?GLOBAL
      E0026EH     DI03                             VAR   ---  NDATA0  ?ND0?GLOBAL
      E00266H     DI04                             VAR   ---  NDATA0  ?ND0?GLOBAL
      E0025EH     DI05                             VAR   ---  NDATA0  ?ND0?GLOBAL
      E00258H     DI06                             VAR   ---  NDATA0  ?ND0?GLOBAL
      E00252H     DI07                             VAR   ---  NDATA0  ?ND0?GLOBAL
      E0024CH     DI08                             VAR   ---  NDATA0  ?ND0?GLOBAL
      E00246H     DI09                             VAR   ---  NDATA0  ?ND0?GLOBAL
      E00290H     DI10                             VAR   ---  NDATA0  ?ND0?GLOBAL
      E00278H     DI11                             VAR   ---  NDATA0  ?ND0?GLOBAL
      E00270H     DI12                             VAR   ---  NDATA0  ?ND0?GLOBAL
      E00268H     DI13                             VAR   ---  NDATA0  ?ND0?GLOBAL
L166 LINKER/LOCATER V5.25                                                             07/29/2021  08:44:04  PAGE 6


      E00260H     DI14                             VAR   ---  NDATA0  ?ND0?GLOBAL
      E0025AH     DI15                             VAR   ---  NDATA0  ?ND0?GLOBAL
      E00254H     DI16                             VAR   ---  NDATA0  ?ND0?GLOBAL
      E0024EH     DI17                             VAR   ---  NDATA0  ?ND0?GLOBAL
      E00248H     DI18                             VAR   ---  NDATA0  ?ND0?GLOBAL
      E00242H     DI19                             VAR   ---  NDATA0  ?ND0?GLOBAL
      E0027AH     DI20                             VAR   ---  NDATA0  ?ND0?GLOBAL
      E00272H     DI21                             VAR   ---  NDATA0  ?ND0?GLOBAL
      E0026AH     DI22                             VAR   ---  NDATA0  ?ND0?GLOBAL
      E00262H     DI23                             VAR   ---  NDATA0  ?ND0?GLOBAL
      E0025CH     DI24                             VAR   ---  NDATA0  ?ND0?GLOBAL
      E00256H     DI25                             VAR   ---  NDATA0  ?ND0?GLOBAL
      E00250H     DI26                             VAR   ---  NDATA0  ?ND0?GLOBAL
      E0024AH     DI27                             VAR   ---  NDATA0  ?ND0?GLOBAL
      E00244H     DI28                             VAR   ---  NDATA0  ?ND0?GLOBAL
      E00240H     DI29                             VAR   ---  NDATA0  ?ND0?GLOBAL
      E00274H     DI30                             VAR   ---  NDATA0  ?ND0?GLOBAL
      E0026CH     DI31                             VAR   ---  NDATA0  ?ND0?GLOBAL
      E00264H     DI32                             VAR   ---  NDATA0  ?ND0?GLOBAL
      E0055AH     DIN1_byte1                       VAR   ---  NDATA0  ?ND0?GLABLE
      E00559H     DIN1_byte2                       VAR   ---  NDATA0  ?ND0?GLABLE
      E00558H     DIN1_byte3                       VAR   ---  NDATA0  ?ND0?GLABLE
      E00556H     DIN1_byte4                       VAR   ---  NDATA0  ?ND0?GLABLE
      E00555H     DIN1_byte5                       VAR   ---  NDATA0  ?ND0?GLABLE
      E00554H     DIN1_byte6                       VAR   ---  NDATA0  ?ND0?GLABLE
      E0055DH     DIN_Fault                        VAR   ---  NDATA0  ?ND0?GLABLE
      C1299CH     DINwriteAddr                     LABEL ---  NCODE   ?PR?DIO
      E00551H     DOUT1_data                       VAR   ---  NDATA0  ?ND0?GLABLE
      E0054FH     DOUT2_data                       VAR   ---  NDATA0  ?ND0?GLABLE
      E0055FH     DOUT_Fault                       VAR   ---  NDATA0  ?ND0?GLABLE
      E00553H     DOUT_Fed1                        VAR   ---  NDATA0  ?ND0?GLABLE
      E00552H     DOUT_Fed2                        VAR   ---  NDATA0  ?ND0?GLABLE
      C1360AH     D_Brk_Logic                      LABEL ---  NCODE   ?PR?BRAKE_CONTROL
      C1364CH     D_Emc_Logic                      LABEL ---  NCODE   ?PR?BRAKE_CONTROL
      C1362CH     D_Mul_Logic                      LABEL ---  NCODE   ?PR?BRAKE_CONTROL
      C13558H     D_Oc_Logic                       LABEL ---  NCODE   ?PR?BRAKE_CONTROL
      C1360CH     D_Res_Logic                      LABEL ---  NCODE   ?PR?BRAKE_CONTROL
      C135A6H     D_Run_Logic                      LABEL ---  NCODE   ?PR?BRAKE_CONTROL
      C137F0H     DelayMs                          LABEL ---  NCODE   ?PR?DELAY
      E00561H     Download_Flag                    VAR   ---  NDATA0  ?ND0?GLABLE
      E00562H     EPBoardLife                      VAR   ---  NDATA0  ?ND0?GLABLE
      C12AC8H     EP_Dispatch                      LABEL ---  NCODE   ?PR?PROTOCOL
      E0054EH     EP_Fault                         VAR   ---  NDATA0  ?ND0?GLABLE
      C12B00H     EP_SendAnswer                    LABEL ---  NCODE   ?PR?PROTOCOL
      C1379AH     GPT1_vInit                       LABEL ---  NCODE   ?PR?GPT1
      C137D6H     GPT1_viTmr2                      LABEL ---  NCODE   ?PR?GPT1
      C137C6H     GPT1_viTmr3                      LABEL ---  NCODE   ?PR?GPT1
      C1386AH     GPT2_vInit                       LABEL ---  NCODE   ?PR?GPT2
      C131FAH     GatAllAD                         LABEL ---  NCODE   ?PR?AIO
      C130CAH     GetADData                        LABEL ---  NCODE   ?PR?AIO
      C119A4H     Get_Brake_Mode                   LABEL ---  NCODE   ?PR?INPUT
      C11362H     Get_Brake_Position               LABEL ---  NCODE   ?PR?INPUT
      C1194AH     Get_Brake_Press                  LABEL ---  NCODE   ?PR?INPUT
      C13846H     Get_Check_State                  LABEL ---  NCODE   ?PR?SELF_CHECK
      C11A10H     Get_Input                        LABEL ---  NCODE   ?PR?INPUT
      C13720H     IO_vInit                         LABEL ---  NCODE   ?PR?IO
      C13074H     Init                             LABEL ---  NCODE   ?PR?MAIN
L166 LINKER/LOCATER V5.25                                                             07/29/2021  08:44:04  PAGE 7


      E0054AH     JH_Target                        VAR   ---  NDATA0  ?ND0?GLABLE
      C12674H     LED_Flash                        LABEL ---  NCODE   ?PR?DIO
      C1267EH     LED_OFF                          LABEL ---  NCODE   ?PR?DIO
      C1267AH     LED_ON                           LABEL ---  NCODE   ?PR?DIO
      C13656H     Logic_All_Pre                    LABEL ---  NCODE   ?PR?BRAKE_CONTROL
      C12EAAH     MAIN_vInit                       LABEL ---  NCODE   ?PR?MAIN
      C12EF0H     MAIN_vLockProtecReg              LABEL ---  NCODE   ?PR?MAIN
      C12EDCH     MAIN_vUnlockProtecReg            LABEL ---  NCODE   ?PR?MAIN
      E00308H     M_ENABLE_ALL                     VAR   ---  NDATA0  ?ND0?GLOBAL
      E002FAH     M_JIANYA_MAX                     VAR   ---  NDATA0  ?ND0?GLOBAL
      E00306H     M_ZHAG_MAX                       VAR   ---  NDATA0  ?ND0?GLOBAL
      C1364EH     Monitor_Logic                    LABEL ---  NCODE   ?PR?BRAKE_CONTROL
      C128C0H     OEClear                          LABEL ---  NCODE   ?PR?DIO
      E0055CH     OUTOE1                           VAR   ---  NDATA0  ?ND0?GLABLE
      E0055BH     OUTOE2                           VAR   ---  NDATA0  ?ND0?GLABLE
      E005B4H     OneSecond                        VAR   ---  NDATA0  ?ND0?DELAY
      C12810H     OutBoardClean                    LABEL ---  NCODE   ?PR?DIO
      C12D00H     Out_Clean                        LABEL ---  NCODE   ?PR?CC2
      E0030AH     PO2_EBV                          VAR   ---  NDATA0  ?ND0?GLOBAL
      E005A5H     PWMOE1                           VAR   ---  NDATA0  ?ND0?PWM
      E005A4H     PWMOE2                           VAR   ---  NDATA0  ?ND0?PWM
      E005A3H     PWMOEbyte                        VAR   ---  NDATA0  ?ND0?PWM
      E00550H     PWM_IN                           VAR   ---  NDATA0  ?ND0?GLABLE
      C12D0EH     PWM_OEClear                      LABEL ---  NCODE   ?PR?CC2
      C12DDCH     PWM_OUTPUT                       LABEL ---  NCODE   ?PR?CC2
      000000H     RESET                            INTNO ---  ---     ---
      E00570H     RecvTestMes1                     VAR   ---  NDATA0  ?ND0?CANDRIVE
      E00564H     RecvTestMes2                     VAR   ---  NDATA0  ?ND0?CANDRIVE
      C130B8H     ResetAD                          LABEL ---  NCODE   ?PR?AIO
      C12518H     SCS_ApplyNewK1Div                LABEL ---  NCODE   ?PR?SCS
      C1256CH     SCS_ApplyNewK2Div                LABEL ---  NCODE   ?PR?SCS
      C124AEH     SCS_ApplyNewNDiv                 LABEL ---  NCODE   ?PR?SCS
      C12442H     SCS_ApplyNewPDiv                 LABEL ---  NCODE   ?PR?SCS
      C123A8H     SCS_CheckFreqOscHiPrec           LABEL ---  NCODE   ?PR?SCS
      C12130H     SCS_ConnectVcoInput              LABEL ---  NCODE   ?PR?SCS
      C12174H     SCS_DelayByTimer                 LABEL ---  NCODE   ?PR?SCS
      C12626H     SCS_DisableVcoBypass             LABEL ---  NCODE   ?PR?SCS
      C12128H     SCS_DisconnectVcoInput           LABEL ---  NCODE   ?PR?SCS
      C1211AH     SCS_EnableOscHiPrecCrystal       LABEL ---  NCODE   ?PR?SCS
      C1264AH     SCS_EnableVcoBypass              LABEL ---  NCODE   ?PR?SCS
      C125E8H     SCS_EnableVcoLockEmerg           LABEL ---  NCODE   ?PR?SCS
      C121F2H     SCS_GoFromBaseToNormalMode       LABEL ---  NCODE   ?PR?SCS
      C122FCH     SCS_InitTimer                    LABEL ---  NCODE   ?PR?SCS
      C12122H     SCS_RestartVcoLockDetect         LABEL ---  NCODE   ?PR?SCS
      C12374H     SCS_RestoreTimer                 LABEL ---  NCODE   ?PR?SCS
      C12138H     SCS_SelectVcoBand                LABEL ---  NCODE   ?PR?SCS
      C125C2H     SCS_SelectVcoSrcOscHiPrec        LABEL ---  NCODE   ?PR?SCS
      C1214CH     SCS_StartTimer                   LABEL ---  NCODE   ?PR?SCS
      C13098H     SPICommunicate                   LABEL ---  NCODE   ?PR?AIO
      E005B1H     SPItransismit                    VAR   ---  NDATA0  ?ND0?U2C0
      E002D2H     STD_PRESS                        VAR   ---  NDATA0  ?ND0?GLOBAL
      E0058AH     SendMessage_data                 VAR   ---  NDATA0  ?ND0?PROTOCOL
      E004E0H     SendTestMes1                     VAR   ---  NDATA0  ?ND0?MAIN
      E004D4H     SendTestMes2                     VAR   ---  NDATA0  ?ND0?MAIN
      E005A9H     TMsFlag                          VAR   ---  NDATA0  ?ND0?GPT1
      C13502H     U2C0_SSC_ubTxDataReady           LABEL ---  NCODE   ?PR?U2C0
      C134D0H     U2C0_SSC_uwGetData               LABEL ---  NCODE   ?PR?U2C0
L166 LINKER/LOCATER V5.25                                                             07/29/2021  08:44:04  PAGE 8


      C133FEH     U2C0_SSC_vInit                   LABEL ---  NCODE   ?PR?U2C0
      C134ACH     U2C0_SSC_vSendData               LABEL ---  NCODE   ?PR?U2C0
      C13528H     U2C0_SSC_vi0IC                   LABEL ---  NCODE   ?PR?U2C0
      C1381CH     USIC2_vInit                      LABEL ---  NCODE   ?PR?USIC2
      C1388CH     WDT_vInit                        LABEL ---  NCODE   ?PR?WDT
      C1266EH     Watch_Dog                        LABEL ---  NCODE   ?PR?DIO
      E00538H     YK_Target                        VAR   ---  NDATA0  ?ND0?GLABLE
      E0059AH     bcu_check_step                   VAR   ---  NDATA0  ?ND0?SELF_CHECK
      E002D8H     bcu_emc                          VAR   ---  NDATA0  ?ND0?GLOBAL
      E00292H     bcu_key                          VAR   ---  NDATA0  ?ND0?GLOBAL
      E0030CH     bcu_last_pos                     VAR   ---  NDATA0  ?ND0?GLOBAL
      E002ECH     bcu_mode                         VAR   ---  NDATA0  ?ND0?GLOBAL
      E00304H     bcu_monitor                      VAR   ---  NDATA0  ?ND0?GLOBAL
      E0029AH     bcu_port                         VAR   ---  NDATA0  ?ND0?GLOBAL
      E0027CH     bcu_pos                          VAR   ---  NDATA0  ?ND0?GLOBAL
      E002DAH     bcu_press                        VAR   ---  NDATA0  ?ND0?GLOBAL
      E002F0H     bcu_punish                       VAR   ---  NDATA0  ?ND0?GLOBAL
      E002FCH     bcu_switch                       VAR   ---  NDATA0  ?ND0?GLOBAL
      C132CEH     canReceive                       LABEL ---  NCODE   ?PR?CANDRIVE
      C133AEH     canReceive_irq                   LABEL ---  NCODE   ?PR?CANDRIVE
      E004D2H     can_switch_cntrl                 VAR   ---  NDATA0  ?ND0?MAIN
      C1325CH     can_trans_data_StandardFrame     LABEL ---  NCODE   ?PR?CANDRIVE
      E00598H     check_busy                       VAR   ---  NDATA0  ?ND0?SELF_CHECK
      E00536H     count                            VAR   ---  NDATA0  ?ND0?PID
      C1380AH     delay                            LABEL ---  NCODE   ?PR?DELAY
      C129BAH     din                              LABEL ---  NCODE   ?PR?DIO
      C12976H     dinDisable                       LABEL ---  NCODE   ?PR?DIO
      C1297EH     dinEnable                        LABEL ---  NCODE   ?PR?DIO
      E002D4H     dindata                          VAR   ---  NDATA0  ?ND0?GLOBAL
      C1291CH     dout                             LABEL ---  NCODE   ?PR?DIO
      C12886H     doutByte                         LABEL ---  NCODE   ?PR?DIO
      C1280AH     doutDisable                      LABEL ---  NCODE   ?PR?DIO
      C1281CH     doutEnalbe                       LABEL ---  NCODE   ?PR?DIO
      E002D0H     doutdata                         VAR   ---  NDATA0  ?ND0?GLOBAL
      E002EAH     er_target                        VAR   ---  NDATA0  ?ND0?GLOBAL
      E0059BH     funcion_num                      VAR   ---  NDATA0  ?ND0?SELF_CHECK
      C12852H     getOUTOE                         LABEL ---  NCODE   ?PR?DIO
      E00530H     in                               VAR   ---  NDATA0  ?ND0?PID
      E0031EH     key_value                        VAR   ---  NDATA0  ?ND0?GLOBAL
      C12F0AH     main                             LABEL ---  NCODE   ?PR?MAIN
      E0052EH     out                              VAR   ---  NDATA0  ?ND0?PID
      C11B20H     pid1                             LABEL ---  NCODE   ?PR?PID
      C11E14H     pid2                             LABEL ---  NCODE   ?PR?PID
      C11AFCH     pid_change                       LABEL ---  NCODE   ?PR?PID
      C11B0EH     pid_initial                      LABEL ---  NCODE   ?PR?PID
      00F800H     pid_jh                           VAR   ---  IDATA0  ?ID0?PID
      C1210AH     pid_test                         LABEL ---  NCODE   ?PR?PID
      00F806H     pid_zg                           VAR   ---  IDATA0  ?ID0?PID
      E0059EH     run_flag                         VAR   ---  NDATA0  ?ND0?BRAKE_CONTROL
      C1313AH     sample1                          LABEL ---  NCODE   ?PR?AIO
      C131B0H     sample_SingleChannel             LABEL ---  NCODE   ?PR?AIO
      E00320H     sample_data                      VAR   ---  NDATA0  ?ND0?AIO
      E0031FH     switch_value                     VAR   ---  NDATA0  ?ND0?GLOBAL
      C11A56H     transfer                         LABEL ---  NCODE   ?PR?PID
      C12834H     writeAddr                        LABEL ---  NCODE   ?PR?DIO


L166 LINKER/LOCATER V5.25                                                             07/29/2021  08:44:04  PAGE 9



SYMBOL TABLE OF MODULE:  .\obj\CF_EBCU (?C_STARTUP)

      VALUE       TYPE      REP       LENGTH  TGR   SYMBOL NAME
      =========================================================
      C00174H     PUBLIC    LABEL     ---     ---   ?C_STARTUP
      000000H     PUBLIC    CONST     ---     ---   ?L?VECSC
      E00000H     PUBLIC    VAR       ---     ---   ?C_USRSTKBOT
      00F600H     PUBLIC    VAR       ---     ---   ?C_SYSSTKBOT
      00F800H     PUBLIC    VAR       ---     ---   ?C_SYSSTKTOP
      000000H     GLOBAL    INTNO     ---     ---   RESET
      000000H     SYMBOL    RBANK     ---     ---   ?C_MAINREGISTERS
      E00200H     SYMBOL    VAR       ---     ---   ?C_USERSTKTOP
      E00220H     SYMBOL    VAR       ---     ---   ?C_USERSTKTOP1
      E00240H     SYMBOL    VAR       ---     ---   ?C_USERSTKTOP2
      E00200H     SYMBOL    VAR       ---     ---   ?C_USRSTKBOT1
      E00220H     SYMBOL    VAR       ---     ---   ?C_USRSTKBOT2
      00FE10H     SYMBOL    SFR       ---     ---   CP
      00FE00H     SYMBOL    SFR       ---     ---   DPP0
      00FE02H     SYMBOL    SFR       ---     ---   DPP1
      00FE04H     SYMBOL    SFR       ---     ---   DPP2
      00FE06H     SYMBOL    SFR       ---     ---   DPP3
      000400H     SYMBOL    CONST     ---     ---   KB
      00F1B8H     SYMBOL    ESFR      ---     ---   PLLCON0
      00F1B9H.7   SYMBOL    ESBIT     ---     ---   PLLCON0_NACK
      00F1BAH     SYMBOL    ESFR      ---     ---   PLLCON1
      00F1BBH.7   SYMBOL    ESBIT     ---     ---   PLLCON1_PACK
      00F1BCH     SYMBOL    ESFR      ---     ---   PLLCON2
      00F1BDH.7   SYMBOL    ESBIT     ---     ---   PLLCON2_K1ACK
      00F1BEH     SYMBOL    ESFR      ---     ---   PLLCON3
      00F1BFH.7   SYMBOL    ESBIT     ---     ---   PLLCON3_K2ACK
      00F0BCH     SYMBOL    ESFR      ---     ---   PLLSTAT
      00FF10H     SYMBOL    SFR       ---     ---   PSW
      00FE12H     SYMBOL    SFR       ---     ---   SP
      00FF0CH     SYMBOL    SFR       ---     ---   SPSEG
      000200H     SYMBOL    CONST     ---     ---   SSTSZ
      00F0E2H     SYMBOL    ESFR      ---     ---   STATCLR1
      00FE14H     SYMBOL    SFR       ---     ---   STKOV
      00FE16H     SYMBOL    SFR       ---     ---   STKUN
      000020H     SYMBOL    CONST     ---     ---   UST1SZ
      000020H     SYMBOL    CONST     ---     ---   UST2SZ
      000200H     SYMBOL    CONST     ---     ---   USTSZ
      00F600H     SYMBOL    VAR       ---     ---   _BOS
      00F800H     SYMBOL    VAR       ---     ---   _TOS
      000000H     SYMBOL    CONST     ---     ---   _VCOBY
      000000H     SYMBOL    CONST     ---     ---   _VCOSEL
      000000H     SYMBOL    CONST     ---     ---   _VECSC

      C00174H     BLOCK     LVL=0     0130H   ---   ?C_RESET
      C00174H     LINE      ---       ---     ---   #1414
      C00178H     LINE      ---       ---     ---   #1424
      C0017CH     LINE      ---       ---     ---   #1425
      C00180H     LINE      ---       ---     ---   #1426
      C00184H     LINE      ---       ---     ---   #1427
      C00188H     LINE      ---       ---     ---   #1715
      C0018CH     LINE      ---       ---     ---   #1717
      C00190H     LINE      ---       ---     ---   #1718
L166 LINKER/LOCATER V5.25                                                             07/29/2021  08:44:04  PAGE 10


      C00194H     LINE      ---       ---     ---   #1722
      C00198H     LINE      ---       ---     ---   #1724
      C0019CH     LINE      ---       ---     ---   #1728
      C001A0H     LINE      ---       ---     ---   #1729
      C001A4H     LINE      ---       ---     ---   #1733
      C001A8H     LINE      ---       ---     ---   #1734
      C001ACH     LINE      ---       ---     ---   #1738
      C001B0H     LINE      ---       ---     ---   #1741
      C001B4H     LINE      ---       ---     ---   #1793
      C001B8H     LINE      ---       ---     ---   #1794
      C001BCH     LINE      ---       ---     ---   #1795
      C001BEH     LINE      ---       ---     ---   #1796
      C001C0H     LINE      ---       ---     ---   #1797
      C001C2H     LINE      ---       ---     ---   #1803
      C001C4H     LINE      ---       ---     ---   #1804
      C001C6H     LINE      ---       ---     ---   #1805
      C001C8H     LINE      ---       ---     ---   #1806
      C001CAH     LINE      ---       ---     ---   #1807
      C001CCH     LINE      ---       ---     ---   #1808
      C001CEH     LINE      ---       ---     ---   #1809
      C001D0H     LINE      ---       ---     ---   #1810
      C001D4H     LINE      ---       ---     ---   #1811
      C001D8H     LINE      ---       ---     ---   #1813
      C001DAH     LINE      ---       ---     ---   #1814
      C001DCH     LINE      ---       ---     ---   #1815
      C001DEH     LINE      ---       ---     ---   #1816
      C001E2H     LINE      ---       ---     ---   #1817
      C001E4H     LINE      ---       ---     ---   #1818
      C001E6H     LINE      ---       ---     ---   #1819
      C001E8H     LINE      ---       ---     ---   #1820
      C001EAH     LINE      ---       ---     ---   #1821
      C001ECH     LINE      ---       ---     ---   #1822
      C001EEH     LINE      ---       ---     ---   #1823
      C001F0H     LINE      ---       ---     ---   #1824
      C001F2H     LINE      ---       ---     ---   #1825
      C001F4H     LINE      ---       ---     ---   #1827
      C001F6H     LINE      ---       ---     ---   #1828
      C001F8H     LINE      ---       ---     ---   #1833
      C001FAH     LINE      ---       ---     ---   #1834
      C001FCH     LINE      ---       ---     ---   #1835
      C001FEH     LINE      ---       ---     ---   #1836
      C00200H     LINE      ---       ---     ---   #1837
      C00204H     LINE      ---       ---     ---   #1838
      C00206H     LINE      ---       ---     ---   #1839
      C00208H     LINE      ---       ---     ---   #1840
      C0020AH     LINE      ---       ---     ---   #1846
      C0020CH     LINE      ---       ---     ---   #1847
      C0020EH     LINE      ---       ---     ---   #1848
      C00210H     LINE      ---       ---     ---   #1849
      C00212H     LINE      ---       ---     ---   #1850
      C00214H     LINE      ---       ---     ---   #1911
      C00218H     LINE      ---       ---     ---   #1912
      C0021CH     LINE      ---       ---     ---   #1918
      C00220H     LINE      ---       ---     ---   #1919
      C00222H     LINE      ---       ---     ---   #1920
      C00224H     LINE      ---       ---     ---   #1921
      C00226H     LINE      ---       ---     ---   #1922
L166 LINKER/LOCATER V5.25                                                             07/29/2021  08:44:04  PAGE 11


      C00228H     LINE      ---       ---     ---   #1923
      C0022AH     LINE      ---       ---     ---   #1924
      C0022EH     LINE      ---       ---     ---   #1925
      C00230H     LINE      ---       ---     ---   #1926
      C00234H     LINE      ---       ---     ---   #1927
      C00236H     LINE      ---       ---     ---   #1928
      C00238H     LINE      ---       ---     ---   #1929
      C0023AH     LINE      ---       ---     ---   #1930
      C0023CH     LINE      ---       ---     ---   #1931
      C0023EH     LINE      ---       ---     ---   #1932
      C00240H     LINE      ---       ---     ---   #1933
      C00242H     LINE      ---       ---     ---   #1934
      C00244H     LINE      ---       ---     ---   #1935
      C00246H     LINE      ---       ---     ---   #1936
      C00248H     LINE      ---       ---     ---   #1937
      C0024CH     LINE      ---       ---     ---   #1938
      C00250H     LINE      ---       ---     ---   #1939
      C00252H     LINE      ---       ---     ---   #1940
      C00254H     LINE      ---       ---     ---   #1941
      C00256H     LINE      ---       ---     ---   #1942
      C00258H     LINE      ---       ---     ---   #1943
      C0025AH     LINE      ---       ---     ---   #1944
      C0025CH     LINE      ---       ---     ---   #1945
      C0025EH     LINE      ---       ---     ---   #1946
      C00260H     LINE      ---       ---     ---   #1947
      C00262H     LINE      ---       ---     ---   #1948
      C00264H     LINE      ---       ---     ---   #1949
      C00268H     LINE      ---       ---     ---   #1950
      C0026CH     LINE      ---       ---     ---   #1951
      C00270H     LINE      ---       ---     ---   #1952
      C00274H     LINE      ---       ---     ---   #1957
      C00276H     LINE      ---       ---     ---   #1958
      C00278H     LINE      ---       ---     ---   #1959
      C0027CH     LINE      ---       ---     ---   #1960
      C0027EH     LINE      ---       ---     ---   #1961
      C00280H     LINE      ---       ---     ---   #1962
      C00282H     LINE      ---       ---     ---   #1964
      C00284H     LINE      ---       ---     ---   #1965
      C00286H     LINE      ---       ---     ---   #1966
      C0028AH     LINE      ---       ---     ---   #1967
      C0028CH     LINE      ---       ---     ---   #1968
      C0028EH     LINE      ---       ---     ---   #1969
      C00290H     LINE      ---       ---     ---   #1970
      C00294H     LINE      ---       ---     ---   #1971
      C00296H     LINE      ---       ---     ---   #1972
      C00298H     LINE      ---       ---     ---   #1973
      C0029AH     LINE      ---       ---     ---   #1974
      C0029CH     LINE      ---       ---     ---   #1975
      C0029EH     LINE      ---       ---     ---   #1976
      C002A0H     LINE      ---       ---     ---   #2065
      C002A0H     SYMBOL    LABEL     ---     ---   EndInit
      C0029CH     SYMBOL    LABEL     ---     ---   StoreBit
      C0029AH     SYMBOL    LABEL     ---     ---   SetBit
      C00282H     SYMBOL    LABEL     ---     ---   InitBit
      C00274H     SYMBOL    LABEL     ---     ---   NoDPP3Adj
      C00258H     SYMBOL    LABEL     ---     ---   CopyInitVal
      C00240H     SYMBOL    LABEL     ---     ---   LenLoad
L166 LINKER/LOCATER V5.25                                                             07/29/2021  08:44:04  PAGE 12


      C0021CH     SYMBOL    LABEL     ---     ---   RepeatInit
      C00214H     SYMBOL    LABEL     ---     ---   Init_Vars
      C00214H     SYMBOL    LABEL     ---     ---   EndClear
      C0020AH     SYMBOL    LABEL     ---     ---   ClearNear
      C001F8H     SYMBOL    LABEL     ---     ---   RepClearFar
      C001F4H     SYMBOL    LABEL     ---     ---   ClearFar
      C001D8H     SYMBOL    LABEL     ---     ---   ClearBit
      C001C2H     SYMBOL    LABEL     ---     ---   RepeatClear
      C001B4H     SYMBOL    LABEL     ---     ---   Clr_Memory
      ---         BLOCKEND  LVL=0     ---     ---   

      C002A4H     BLOCK     LVL=0     00C8H   ---   ?C_UTILFUNCS
      C002A4H     LINE      ---       ---     ---   #2071
      C002A8H     LINE      ---       ---     ---   #2072
      C002AAH     LINE      ---       ---     ---   #2073
      C002ACH     LINE      ---       ---     ---   #2074
      C002AEH     LINE      ---       ---     ---   #2076
      C002B2H     LINE      ---       ---     ---   #2077
      C002B4H     LINE      ---       ---     ---   #2078
      C002B6H     LINE      ---       ---     ---   #2079
      C002B8H     LINE      ---       ---     ---   #2081
      C002BCH     LINE      ---       ---     ---   #2082
      C002C0H     LINE      ---       ---     ---   #2083
      C002C2H     LINE      ---       ---     ---   #2084
      C002C4H     LINE      ---       ---     ---   #2086
      C002C8H     LINE      ---       ---     ---   #2088
      C002CCH     LINE      ---       ---     ---   #2089
      C002D0H     LINE      ---       ---     ---   #2091
      C002D2H     LINE      ---       ---     ---   #2092
      C002D4H     LINE      ---       ---     ---   #2093
      C002D8H     LINE      ---       ---     ---   #2094
      C002DCH     LINE      ---       ---     ---   #2096
      C002DEH     LINE      ---       ---     ---   #2099
      C002E2H     LINE      ---       ---     ---   #2100
      C002E6H     LINE      ---       ---     ---   #2101
      C002E8H     LINE      ---       ---     ---   #2102
      C002EAH     LINE      ---       ---     ---   #2104
      C002EEH     LINE      ---       ---     ---   #2106
      C002F2H     LINE      ---       ---     ---   #2107
      C002F6H     LINE      ---       ---     ---   #2109
      C002F8H     LINE      ---       ---     ---   #2110
      C002FAH     LINE      ---       ---     ---   #2112
      C002FEH     LINE      ---       ---     ---   #2113
      C00302H     LINE      ---       ---     ---   #2115
      C00304H     LINE      ---       ---     ---   #2118
      C00308H     LINE      ---       ---     ---   #2119
      C0030AH     LINE      ---       ---     ---   #2120
      C0030EH     LINE      ---       ---     ---   #2121
      C00310H     LINE      ---       ---     ---   #2122
      C00312H     LINE      ---       ---     ---   #2123
      C00316H     LINE      ---       ---     ---   #2124
      C00318H     LINE      ---       ---     ---   #2126
      C0031AH     LINE      ---       ---     ---   #2127
      C0031EH     LINE      ---       ---     ---   #2128
      C00322H     LINE      ---       ---     ---   #2129
      C00326H     LINE      ---       ---     ---   #2130
      C0032AH     LINE      ---       ---     ---   #2131
L166 LINKER/LOCATER V5.25                                                             07/29/2021  08:44:04  PAGE 13


      C0032CH     LINE      ---       ---     ---   #2132
      C0032EH     LINE      ---       ---     ---   #2133
      C00332H     LINE      ---       ---     ---   #2134
      C00336H     LINE      ---       ---     ---   #2135
      C00338H     LINE      ---       ---     ---   #2138
      C0033CH     LINE      ---       ---     ---   #2139
      C0033EH     LINE      ---       ---     ---   #2140
      C00342H     LINE      ---       ---     ---   #2141
      C00344H     LINE      ---       ---     ---   #2142
      C00346H     LINE      ---       ---     ---   #2143
      C0034AH     LINE      ---       ---     ---   #2144
      C0034CH     LINE      ---       ---     ---   #2146
      C0034EH     LINE      ---       ---     ---   #2147
      C00352H     LINE      ---       ---     ---   #2148
      C00356H     LINE      ---       ---     ---   #2149
      C0035AH     LINE      ---       ---     ---   #2150
      C0035EH     LINE      ---       ---     ---   #2151
      C00360H     LINE      ---       ---     ---   #2152
      C00362H     LINE      ---       ---     ---   #2153
      C00366H     LINE      ---       ---     ---   #2154
      C0036AH     LINE      ---       ---     ---   #2155
      C00362H     SYMBOL    LABEL     ---     ---   NSETLoop
      C00356H     SYMBOL    LABEL     ---     ---   NCLRLoop
      C0034CH     SYMBOL    LABEL     ---     ---   AppNDiv
      C00338H     SYMBOL    LABEL     ---     ---   ApplyNewNDiv
      C0032EH     SYMBOL    LABEL     ---     ---   PSETLoop
      C00322H     SYMBOL    LABEL     ---     ---   PCLRLoop
      C00318H     SYMBOL    LABEL     ---     ---   AppPDiv
      C00304H     SYMBOL    LABEL     ---     ---   ApplyNewPDiv
      C00302H     SYMBOL    LABEL     ---     ---   K2DivDone
      C002FAH     SYMBOL    LABEL     ---     ---   K2SETLoop
      C002EEH     SYMBOL    LABEL     ---     ---   K2CLRLoop
      C002DEH     SYMBOL    LABEL     ---     ---   ApplyNewK2Div
      C002DCH     SYMBOL    LABEL     ---     ---   K1DivDone
      C002D4H     SYMBOL    LABEL     ---     ---   K1SETLoop
      C002C8H     SYMBOL    LABEL     ---     ---   K1CLRLoop
      C002B8H     SYMBOL    LABEL     ---     ---   ApplyNewK1Div
      C002B2H     SYMBOL    LABEL     ---     ---   Del2
      C002AEH     SYMBOL    LABEL     ---     ---   Delay200us
      C002A8H     SYMBOL    LABEL     ---     ---   Del1
      C002A4H     SYMBOL    LABEL     ---     ---   Delay1ms
      ---         BLOCKEND  LVL=0     ---     ---   
      C12F0AH     GLOBAL    LABEL     ---     ---   main
      C12EF0H     PUBLIC    LABEL     ---     ---   MAIN_vLockProtecReg
      C13074H     PUBLIC    LABEL     ---     ---   Init
      C12EAAH     PUBLIC    LABEL     ---     ---   MAIN_vInit
      C12EDCH     PUBLIC    LABEL     ---     ---   MAIN_vUnlockProtecReg
      E00478H     PUBLIC    VAR       ---     ---   CPUTime
      E00496H     PUBLIC    VAR       ---     ---   CPUtime_Addr
      E004D2H     PUBLIC    VAR       ---     ---   can_switch_cntrl
      E004D4H     PUBLIC    VAR       ---     ---   SendTestMes2
      E004E0H     PUBLIC    VAR       ---     ---   SendTestMes1
      E004F0H     PUBLIC    VAR       ---     ---   CAN_OperateFlag
      E004ECH     SYMBOL    VAR       ---     ---   power_initCount
      E004EFH     SYMBOL    VAR       ---     ---   PowerCount

      C12EAAH     BLOCK     LVL=0     0032H   ---   MAIN_vInit
L166 LINKER/LOCATER V5.25                                                             07/29/2021  08:44:04  PAGE 14


      C12EAAH     LINE      ---       ---     ---   #120
      C12EAAH     LINE      ---       ---     ---   #121
      C12EAAH     LINE      ---       ---     ---   #130
      C12EACH     LINE      ---       ---     ---   #140
      C12EAEH     LINE      ---       ---     ---   #143
      C12EB2H     LINE      ---       ---     ---   #146
      C12EB6H     LINE      ---       ---     ---   #149
      C12EBAH     LINE      ---       ---     ---   #156
      C12EBEH     LINE      ---       ---     ---   #159
      C12EC2H     LINE      ---       ---     ---   #162
      C12EC6H     LINE      ---       ---     ---   #165
      C12ECAH     LINE      ---       ---     ---   #168
      C12ECEH     LINE      ---       ---     ---   #171
      C12ED2H     LINE      ---       ---     ---   #174
      C12ED6H     LINE      ---       ---     ---   #186
      C12ED8H     LINE      ---       ---     ---   #189
      C12EDAH     LINE      ---       ---     ---   #191
      ---         BLOCKEND  LVL=0     ---     ---   

      C12EDCH     BLOCK     LVL=0     0014H   ---   MAIN_vUnlockProtecReg
      C12EDCH     LINE      ---       ---     ---   #216
      C12EDCH     LINE      ---       ---     ---   #219
      C12EE2H     LINE      ---       ---     ---   #220
      C12EE6H     LINE      ---       ---     ---   #221
      C12EEAH     LINE      ---       ---     ---   #222
      C12EEEH     LINE      ---       ---     ---   #224
      ---         BLOCKEND  LVL=0     ---     ---   

      C12EF0H     BLOCK     LVL=0     001AH   ---   MAIN_vLockProtecReg
      C12EF0H     LINE      ---       ---     ---   #249
      C12EF0H     LINE      ---       ---     ---   #252
      C12EF6H     LINE      ---       ---     ---   #253
      C12EFAH     LINE      ---       ---     ---   #254
      C12EFEH     LINE      ---       ---     ---   #255
      C12F02H     LINE      ---       ---     ---   #256
      C12F08H     LINE      ---       ---     ---   #258
      ---         BLOCKEND  LVL=0     ---     ---   

      C12F0AH     BLOCK     LVL=0     016AH   ---   main
      C12F0AH     BLOCK     LVL=1     016AH   ---   
      E004EEH     SYMBOL    VAR       ---     ---   countResume
      E004EDH     SYMBOL    VAR       ---     ---   CPU_Life_Pre
      00004DH     SYMBOL    REG       ---     ---   i
      ---         BLOCKEND  LVL=1     ---     ---   
      C12F0AH     LINE      ---       ---     ---   #292
      C12F0AH     LINE      ---       ---     ---   #293
      C12F0AH     LINE      ---       ---     ---   #297
      C12F0CH     LINE      ---       ---     ---   #300
      C12F0EH     LINE      ---       ---     ---   #303
      C12F12H     LINE      ---       ---     ---   #305
      C12F18H     LINE      ---       ---     ---   #307
      C12F1CH     LINE      ---       ---     ---   #308
      C12F26H     LINE      ---       ---     ---   #310
      C12F2AH     LINE      ---       ---     ---   #311
      C12F2AH     LINE      ---       ---     ---   #312
      C12F32H     LINE      ---       ---     ---   #314
      C12F3AH     LINE      ---       ---     ---   #317
L166 LINKER/LOCATER V5.25                                                             07/29/2021  08:44:04  PAGE 15


      C12F3AH     LINE      ---       ---     ---   #322
      C12F46H     LINE      ---       ---     ---   #324
      C12F50H     LINE      ---       ---     ---   #325
      C12F50H     LINE      ---       ---     ---   #327
      C12F5CH     LINE      ---       ---     ---   #329
      C12F66H     LINE      ---       ---     ---   #330
      C12F66H     LINE      ---       ---     ---   #332
      C12F6EH     LINE      ---       ---     ---   #334
      C12F72H     LINE      ---       ---     ---   #335
      C12F76H     LINE      ---       ---     ---   #336
      C12F7AH     LINE      ---       ---     ---   #337
      C12F7EH     LINE      ---       ---     ---   #340
      C12F82H     LINE      ---       ---     ---   #341
      C12F8EH     LINE      ---       ---     ---   #343
      C12F94H     LINE      ---       ---     ---   #345
      C12F9AH     LINE      ---       ---     ---   #347
      C12F9EH     LINE      ---       ---     ---   #348
      C12FA0H     LINE      ---       ---     ---   #349
      C12FA6H     LINE      ---       ---     ---   #351
      C12FAAH     LINE      ---       ---     ---   #352
      C12FACH     LINE      ---       ---     ---   #356
      C12FC0H     LINE      ---       ---     ---   #358
      C12FC4H     LINE      ---       ---     ---   #359
      C12FC6H     LINE      ---       ---     ---   #362
      C12FCAH     LINE      ---       ---     ---   #365
      C12FD0H     LINE      ---       ---     ---   #367
      C12FD4H     LINE      ---       ---     ---   #368
      C12FD6H     LINE      ---       ---     ---   #370
      C12FDCH     LINE      ---       ---     ---   #372
      C12FE0H     LINE      ---       ---     ---   #373
      C12FE2H     LINE      ---       ---     ---   #375
      C12FE8H     LINE      ---       ---     ---   #377
      C12FECH     LINE      ---       ---     ---   #378
      C12FEEH     LINE      ---       ---     ---   #380
      C12FF4H     LINE      ---       ---     ---   #382
      C12FF8H     LINE      ---       ---     ---   #383
      C12FFAH     LINE      ---       ---     ---   #385
      C13000H     LINE      ---       ---     ---   #387
      C13004H     LINE      ---       ---     ---   #388
      C13006H     LINE      ---       ---     ---   #390
      C1300CH     LINE      ---       ---     ---   #392
      C13010H     LINE      ---       ---     ---   #393
      C13010H     LINE      ---       ---     ---   #395
      C13010H     LINE      ---       ---     ---   #396
      C13010H     LINE      ---       ---     ---   #399
      C1301AH     LINE      ---       ---     ---   #401
      C13024H     LINE      ---       ---     ---   #402
      C1302EH     LINE      ---       ---     ---   #403
      C13036H     LINE      ---       ---     ---   #404
      C1303AH     LINE      ---       ---     ---   #405
      C1303CH     LINE      ---       ---     ---   #408
      C1304AH     LINE      ---       ---     ---   #410
      C1304EH     LINE      ---       ---     ---   #411
      C13056H     LINE      ---       ---     ---   #412
      C1305EH     LINE      ---       ---     ---   #413
      C1305EH     LINE      ---       ---     ---   #415
      C13060H     LINE      ---       ---     ---   #416
L166 LINKER/LOCATER V5.25                                                             07/29/2021  08:44:04  PAGE 16


      C13070H     LINE      ---       ---     ---   #417
      ---         BLOCKEND  LVL=0     ---     ---   

      C13074H     BLOCK     LVL=0     0024H   ---   Init
      C13074H     LINE      ---       ---     ---   #436
      C13074H     LINE      ---       ---     ---   #439
      C13078H     LINE      ---       ---     ---   #440
      C1307CH     LINE      ---       ---     ---   #441
      C13080H     LINE      ---       ---     ---   #442
      C13088H     LINE      ---       ---     ---   #443
      C13090H     LINE      ---       ---     ---   #446
      C13096H     LINE      ---       ---     ---   #447
      ---         BLOCKEND  LVL=0     ---     ---   
      C12174H     PUBLIC    LABEL     ---     ---   SCS_DelayByTimer
      C12442H     PUBLIC    LABEL     ---     ---   SCS_ApplyNewPDiv
      C124AEH     PUBLIC    LABEL     ---     ---   SCS_ApplyNewNDiv
      C125C2H     PUBLIC    LABEL     ---     ---   SCS_SelectVcoSrcOscHiPrec
      C122FCH     PUBLIC    LABEL     ---     ---   SCS_InitTimer
      C1211AH     PUBLIC    LABEL     ---     ---   SCS_EnableOscHiPrecCrystal
      C1214CH     PUBLIC    LABEL     ---     ---   SCS_StartTimer
      C12130H     PUBLIC    LABEL     ---     ---   SCS_ConnectVcoInput
      C121F2H     PUBLIC    LABEL     ---     ---   SCS_GoFromBaseToNormalMode
      C12138H     PUBLIC    LABEL     ---     ---   SCS_SelectVcoBand
      C12122H     PUBLIC    LABEL     ---     ---   SCS_RestartVcoLockDetect
      C125E8H     PUBLIC    LABEL     ---     ---   SCS_EnableVcoLockEmerg
      C12374H     PUBLIC    LABEL     ---     ---   SCS_RestoreTimer
      C1264AH     PUBLIC    LABEL     ---     ---   SCS_EnableVcoBypass
      C12626H     PUBLIC    LABEL     ---     ---   SCS_DisableVcoBypass
      C123A8H     PUBLIC    LABEL     ---     ---   SCS_CheckFreqOscHiPrec
      C1256CH     PUBLIC    LABEL     ---     ---   SCS_ApplyNewK2Div
      C12518H     PUBLIC    LABEL     ---     ---   SCS_ApplyNewK1Div
      C12128H     PUBLIC    LABEL     ---     ---   SCS_DisconnectVcoInput
      C121A4H     SYMBOL    LABEL     ---     ---   SCS_RampUpPllInNormalMode
      E0057EH     SYMBOL    VAR       ---     ---   Ccu60Tctr2Save
      E00580H     SYMBOL    VAR       ---     ---   Ccu60Tctr0Save
      E00582H     SYMBOL    VAR       ---     ---   Ccu60McfgSave
      E00584H     SYMBOL    VAR       ---     ---   Ccu60KscfgSave
      E00586H     SYMBOL    VAR       ---     ---   Ccu60PiselhSave
      E00588H     SYMBOL    VAR       ---     ---   PowerCount

      C1211AH     BLOCK     LVL=0     0008H   ---   SCS_EnableOscHiPrecCrystal
      C1211AH     LINE      ---       ---     ---   #250
      C1211AH     LINE      ---       ---     ---   #288
      C12120H     LINE      ---       ---     ---   #292
      ---         BLOCKEND  LVL=0     ---     ---   

      C12122H     BLOCK     LVL=0     0006H   ---   SCS_RestartVcoLockDetect
      C12122H     LINE      ---       ---     ---   #319
      C12122H     LINE      ---       ---     ---   #323
      C12126H     LINE      ---       ---     ---   #327
      ---         BLOCKEND  LVL=0     ---     ---   

      C12128H     BLOCK     LVL=0     0008H   ---   SCS_DisconnectVcoInput
      C12128H     LINE      ---       ---     ---   #355
      C12128H     LINE      ---       ---     ---   #364
      C1212EH     LINE      ---       ---     ---   #366
      ---         BLOCKEND  LVL=0     ---     ---   
L166 LINKER/LOCATER V5.25                                                             07/29/2021  08:44:04  PAGE 17



      C12130H     BLOCK     LVL=0     0008H   ---   SCS_ConnectVcoInput
      C12130H     LINE      ---       ---     ---   #394
      C12130H     LINE      ---       ---     ---   #403
      C12136H     LINE      ---       ---     ---   #405
      ---         BLOCKEND  LVL=0     ---     ---   

      C12138H     BLOCK     LVL=0     0014H   ---   SCS_SelectVcoBand
      000008H     SYMBOL    REG       ---     ---   VcoBand
      C12138H     LINE      ---       ---     ---   #432
      C12138H     LINE      ---       ---     ---   #435
      C1214AH     LINE      ---       ---     ---   #437
      ---         BLOCKEND  LVL=0     ---     ---   

      C1214CH     BLOCK     LVL=0     0028H   ---   SCS_StartTimer
      000008H     SYMBOL    REG       ---     ---   Cycles
      C1214CH     LINE      ---       ---     ---   #466
      C1214CH     LINE      ---       ---     ---   #482
      C12154H     LINE      ---       ---     ---   #485
      C12158H     LINE      ---       ---     ---   #487
      C1215AH     LINE      ---       ---     ---   #488
      C1215AH     LINE      ---       ---     ---   #491
      C12162H     LINE      ---       ---     ---   #507
      C1216AH     LINE      ---       ---     ---   #523
      C12172H     LINE      ---       ---     ---   #525
      ---         BLOCKEND  LVL=0     ---     ---   

      C12174H     BLOCK     LVL=0     0030H   ---   SCS_DelayByTimer
      000008H     SYMBOL    REG       ---     ---   Cycles
      C12174H     BLOCK     LVL=1     0026H   ---   
      000008H     SYMBOL    REG       ---     ---   Cycles?1?SCS_StartTimer
      ---         BLOCKEND  LVL=1     ---     ---   
      C12174H     LINE      ---       ---     ---   #554
      C12174H     LINE      ---       ---     ---   #557
      C12174H     LINE      ---       ---     ---   #482
      C1217CH     LINE      ---       ---     ---   #485
      C12180H     LINE      ---       ---     ---   #487
      C12182H     LINE      ---       ---     ---   #488
      C12182H     LINE      ---       ---     ---   #491
      C1218AH     LINE      ---       ---     ---   #507
      C12192H     LINE      ---       ---     ---   #523
      C1219AH     LINE      ---       ---     ---   #560
      C1219AH     LINE      ---       ---     ---   #562
      C121A2H     LINE      ---       ---     ---   #565
      ---         BLOCKEND  LVL=0     ---     ---   

      C121A4H     BLOCK     LVL=0     004EH   ---   SCS_RampUpPllInNormalMode
      C121A6H     BLOCK     LVL=1     0048H   ---   
      00000DH     SYMBOL    REG       ---     ---   Error
      ---         BLOCKEND  LVL=1     ---     ---   
      C121A4H     LINE      ---       ---     ---   #594
      C121A6H     LINE      ---       ---     ---   #595
      C121A6H     LINE      ---       ---     ---   #600
      C121AEH     LINE      ---       ---     ---   #601
      C121B2H     LINE      ---       ---     ---   #603
      C121B4H     LINE      ---       ---     ---   #604
      C121B4H     LINE      ---       ---     ---   #608
L166 LINKER/LOCATER V5.25                                                             07/29/2021  08:44:04  PAGE 18


      C121B8H     LINE      ---       ---     ---   #611
      C121C0H     LINE      ---       ---     ---   #612
      C121C4H     LINE      ---       ---     ---   #614
      C121C6H     LINE      ---       ---     ---   #615
      C121C6H     LINE      ---       ---     ---   #619
      C121CAH     LINE      ---       ---     ---   #622
      C121D2H     LINE      ---       ---     ---   #623
      C121D6H     LINE      ---       ---     ---   #625
      C121D8H     LINE      ---       ---     ---   #626
      C121D8H     LINE      ---       ---     ---   #628
      C121DEH     LINE      ---       ---     ---   #642
      C121E6H     LINE      ---       ---     ---   #643
      C121EAH     LINE      ---       ---     ---   #645
      C121ECH     LINE      ---       ---     ---   #646
      C121ECH     LINE      ---       ---     ---   #649
      C121EEH     LINE      ---       ---     ---   #651
      ---         BLOCKEND  LVL=0     ---     ---   

      C121F2H     BLOCK     LVL=0     010AH   ---   SCS_GoFromBaseToNormalMode
      C121F4H     BLOCK     LVL=1     0104H   ---   
      00000DH     SYMBOL    REG       ---     ---   Error
      C12228H     BLOCK     LVL=2     000AH   ---   
      000004H     SYMBOL    REG       ---     ---   VcoBand?3?SCS_SelectVcoBand
      ---         BLOCKEND  LVL=2     ---     ---   
      C122A2H     BLOCK     LVL=2     0020H   ---   
      000004H     SYMBOL    REG       ---     ---   Cycles?7?SCS_StartTimer
      ---         BLOCKEND  LVL=2     ---     ---   
      ---         BLOCKEND  LVL=1     ---     ---   
      C121F2H     LINE      ---       ---     ---   #680
      C121F4H     LINE      ---       ---     ---   #681
      C121F4H     LINE      ---       ---     ---   #288
      C121FAH     LINE      ---       ---     ---   #688
      C12200H     LINE      ---       ---     ---   #689
      C12204H     LINE      ---       ---     ---   #691
      C12206H     LINE      ---       ---     ---   #692
      C12206H     LINE      ---       ---     ---   #695
      C1220EH     LINE      ---       ---     ---   #696
      C12212H     LINE      ---       ---     ---   #698
      C12214H     LINE      ---       ---     ---   #699
      C12214H     LINE      ---       ---     ---   #702
      C1221AH     LINE      ---       ---     ---   #703
      C1221EH     LINE      ---       ---     ---   #705
      C12220H     LINE      ---       ---     ---   #706
      C12220H     LINE      ---       ---     ---   #708
      C12228H     LINE      ---       ---     ---   #712
      C12228H     LINE      ---       ---     ---   #435
      C12232H     LINE      ---       ---     ---   #715
      C12238H     LINE      ---       ---     ---   #716
      C1223AH     LINE      ---       ---     ---   #721
      C12242H     LINE      ---       ---     ---   #722
      C12246H     LINE      ---       ---     ---   #724
      C12248H     LINE      ---       ---     ---   #725
      C12248H     LINE      ---       ---     ---   #729
      C12250H     LINE      ---       ---     ---   #730
      C12254H     LINE      ---       ---     ---   #732
      C12256H     LINE      ---       ---     ---   #733
      C12256H     LINE      ---       ---     ---   #736
L166 LINKER/LOCATER V5.25                                                             07/29/2021  08:44:04  PAGE 19


      C12260H     LINE      ---       ---     ---   #737
      C12264H     LINE      ---       ---     ---   #739
      C12266H     LINE      ---       ---     ---   #740
      C12266H     LINE      ---       ---     ---   #364
      C1226CH     LINE      ---       ---     ---   #746
      C12272H     LINE      ---       ---     ---   #749
      C12278H     LINE      ---       ---     ---   #750
      C1227CH     LINE      ---       ---     ---   #752
      C1227EH     LINE      ---       ---     ---   #753
      C1227EH     LINE      ---       ---     ---   #756
      C12284H     LINE      ---       ---     ---   #757
      C12288H     LINE      ---       ---     ---   #759
      C1228AH     LINE      ---       ---     ---   #760
      C1228AH     LINE      ---       ---     ---   #764
      C12294H     LINE      ---       ---     ---   #765
      C12298H     LINE      ---       ---     ---   #767
      C1229AH     LINE      ---       ---     ---   #768
      C1229AH     LINE      ---       ---     ---   #403
      C122A0H     LINE      ---       ---     ---   #323
      C122A2H     LINE      ---       ---     ---   #777
      C122A2H     LINE      ---       ---     ---   #482
      C122AAH     LINE      ---       ---     ---   #485
      C122AAH     LINE      ---       ---     ---   #487
      C122AAH     LINE      ---       ---     ---   #488
      C122AAH     LINE      ---       ---     ---   #491
      C122B2H     LINE      ---       ---     ---   #507
      C122BAH     LINE      ---       ---     ---   #523
      C122C2H     LINE      ---       ---     ---   #780
      C122C2H     LINE      ---       ---     ---   #782
      C122D2H     LINE      ---       ---     ---   #784
      C122DAH     LINE      ---       ---     ---   #787
      C122DEH     LINE      ---       ---     ---   #788
      C122DEH     LINE      ---       ---     ---   #791
      C122E4H     LINE      ---       ---     ---   #792
      C122E8H     LINE      ---       ---     ---   #794
      C122EAH     LINE      ---       ---     ---   #795
      C122EAH     LINE      ---       ---     ---   #798
      C122F0H     LINE      ---       ---     ---   #799
      C122F4H     LINE      ---       ---     ---   #801
      C122F6H     LINE      ---       ---     ---   #802
      C122F6H     LINE      ---       ---     ---   #805
      C122F8H     LINE      ---       ---     ---   #807
      ---         BLOCKEND  LVL=0     ---     ---   

      C122FCH     BLOCK     LVL=0     0078H   ---   SCS_InitTimer
      C122FEH     BLOCK     LVL=1     0072H   ---   
      000000H     SYMBOL    AUTO      ---     ---   Work
      ---         BLOCKEND  LVL=1     ---     ---   
      C122FCH     LINE      ---       ---     ---   #840
      C122FEH     LINE      ---       ---     ---   #841
      C122FEH     LINE      ---       ---     ---   #845
      C12306H     LINE      ---       ---     ---   #859
      C12310H     LINE      ---       ---     ---   #862
      C12316H     LINE      ---       ---     ---   #865
      C1231EH     LINE      ---       ---     ---   #871
      C12328H     LINE      ---       ---     ---   #888
      C12330H     LINE      ---       ---     ---   #891
L166 LINKER/LOCATER V5.25                                                             07/29/2021  08:44:04  PAGE 20


      C12338H     LINE      ---       ---     ---   #935
      C12346H     LINE      ---       ---     ---   #940
      C1234EH     LINE      ---       ---     ---   #966
      C1235CH     LINE      ---       ---     ---   #973
      C12364H     LINE      ---       ---     ---   #982
      C12370H     LINE      ---       ---     ---   #986
      ---         BLOCKEND  LVL=0     ---     ---   

      C12374H     BLOCK     LVL=0     0034H   ---   SCS_RestoreTimer
      C12374H     LINE      ---       ---     ---   #1017
      C12374H     LINE      ---       ---     ---   #1033
      C1237CH     LINE      ---       ---     ---   #1036
      C12384H     LINE      ---       ---     ---   #1039
      C1238CH     LINE      ---       ---     ---   #1042
      C12394H     LINE      ---       ---     ---   #1045
      C1239CH     LINE      ---       ---     ---   #1059
      C123A6H     LINE      ---       ---     ---   #1061
      ---         BLOCKEND  LVL=0     ---     ---   

      C123A8H     BLOCK     LVL=0     009AH   ---   SCS_CheckFreqOscHiPrec
      C123A8H     BLOCK     LVL=1     0098H   ---   
      000005H     SYMBOL    REG       ---     ---   Attempts
      C123AAH     BLOCK     LVL=2     0020H   ---   
      000006H     SYMBOL    REG       ---     ---   Cycles?8?SCS_StartTimer
      ---         BLOCKEND  LVL=2     ---     ---   
      C123ECH     BLOCK     LVL=2     0020H   ---   
      000006H     SYMBOL    REG       ---     ---   Cycles?9?SCS_StartTimer
      ---         BLOCKEND  LVL=2     ---     ---   
      ---         BLOCKEND  LVL=1     ---     ---   
      C123A8H     LINE      ---       ---     ---   #1086
      C123A8H     LINE      ---       ---     ---   #1087
      C123A8H     LINE      ---       ---     ---   #1091
      C123AAH     LINE      ---       ---     ---   #1093
      C123AAH     LINE      ---       ---     ---   #1096
      C123AAH     LINE      ---       ---     ---   #482
      C123B2H     LINE      ---       ---     ---   #485
      C123B2H     LINE      ---       ---     ---   #487
      C123B2H     LINE      ---       ---     ---   #488
      C123B2H     LINE      ---       ---     ---   #491
      C123BAH     LINE      ---       ---     ---   #507
      C123C2H     LINE      ---       ---     ---   #523
      C123CAH     LINE      ---       ---     ---   #1099
      C123CAH     LINE      ---       ---     ---   #1101
      C123DAH     LINE      ---       ---     ---   #1104
      C123E2H     LINE      ---       ---     ---   #1107
      C123E6H     LINE      ---       ---     ---   #1108
      C123E6H     LINE      ---       ---     ---   #1117
      C123ECH     LINE      ---       ---     ---   #1121
      C123ECH     LINE      ---       ---     ---   #482
      C123F4H     LINE      ---       ---     ---   #485
      C123F4H     LINE      ---       ---     ---   #487
      C123F4H     LINE      ---       ---     ---   #488
      C123F4H     LINE      ---       ---     ---   #491
      C123FCH     LINE      ---       ---     ---   #507
      C12404H     LINE      ---       ---     ---   #523
      C1240CH     LINE      ---       ---     ---   #1124
      C1240CH     LINE      ---       ---     ---   #1126
L166 LINKER/LOCATER V5.25                                                             07/29/2021  08:44:04  PAGE 21


      C12424H     LINE      ---       ---     ---   #1128
      C12434H     LINE      ---       ---     ---   #1131
      C12438H     LINE      ---       ---     ---   #1132
      C12438H     LINE      ---       ---     ---   #1134
      C1243AH     LINE      ---       ---     ---   #1135
      C1243EH     LINE      ---       ---     ---   #1139
      C12440H     LINE      ---       ---     ---   #1141
      ---         BLOCKEND  LVL=0     ---     ---   

      C12442H     BLOCK     LVL=0     006CH   ---   SCS_ApplyNewPDiv
      000008H     SYMBOL    REG       ---     ---   PDiv
      C12442H     LINE      ---       ---     ---   #1170
      C12442H     LINE      ---       ---     ---   #1172
      C12450H     LINE      ---       ---     ---   #1175
      C12454H     LINE      ---       ---     ---   #1176
      C12454H     LINE      ---       ---     ---   #1185
      C1245AH     LINE      ---       ---     ---   #1210
      C1246CH     LINE      ---       ---     ---   #1214
      C12484H     LINE      ---       ---     ---   #1216
      C12488H     LINE      ---       ---     ---   #1217
      C12488H     LINE      ---       ---     ---   #1221
      C1248EH     LINE      ---       ---     ---   #1224
      C124A6H     LINE      ---       ---     ---   #1226
      C124AAH     LINE      ---       ---     ---   #1227
      C124AAH     LINE      ---       ---     ---   #1230
      C124ACH     LINE      ---       ---     ---   #1232
      ---         BLOCKEND  LVL=0     ---     ---   

      C124AEH     BLOCK     LVL=0     006AH   ---   SCS_ApplyNewNDiv
      000008H     SYMBOL    REG       ---     ---   NDiv
      C124AEH     LINE      ---       ---     ---   #1261
      C124AEH     LINE      ---       ---     ---   #1263
      C124BCH     LINE      ---       ---     ---   #1266
      C124C0H     LINE      ---       ---     ---   #1267
      C124C0H     LINE      ---       ---     ---   #1276
      C124C6H     LINE      ---       ---     ---   #1298
      C124D6H     LINE      ---       ---     ---   #1302
      C124EEH     LINE      ---       ---     ---   #1304
      C124F2H     LINE      ---       ---     ---   #1305
      C124F2H     LINE      ---       ---     ---   #1309
      C124F8H     LINE      ---       ---     ---   #1312
      C12510H     LINE      ---       ---     ---   #1314
      C12514H     LINE      ---       ---     ---   #1315
      C12514H     LINE      ---       ---     ---   #1318
      C12516H     LINE      ---       ---     ---   #1320
      ---         BLOCKEND  LVL=0     ---     ---   

      C12518H     BLOCK     LVL=0     0054H   ---   SCS_ApplyNewK1Div
      000008H     SYMBOL    REG       ---     ---   K1Div
      C12518H     LINE      ---       ---     ---   #1349
      C12518H     LINE      ---       ---     ---   #1351
      C12524H     LINE      ---       ---     ---   #1354
      C12528H     LINE      ---       ---     ---   #1355
      C12528H     LINE      ---       ---     ---   #1361
      C1252CH     LINE      ---       ---     ---   #1365
      C12544H     LINE      ---       ---     ---   #1367
      C12548H     LINE      ---       ---     ---   #1368
L166 LINKER/LOCATER V5.25                                                             07/29/2021  08:44:04  PAGE 22


      C12548H     LINE      ---       ---     ---   #1371
      C1254CH     LINE      ---       ---     ---   #1374
      C12564H     LINE      ---       ---     ---   #1376
      C12568H     LINE      ---       ---     ---   #1377
      C12568H     LINE      ---       ---     ---   #1380
      C1256AH     LINE      ---       ---     ---   #1382
      ---         BLOCKEND  LVL=0     ---     ---   

      C1256CH     BLOCK     LVL=0     0056H   ---   SCS_ApplyNewK2Div
      000008H     SYMBOL    REG       ---     ---   K2Div
      C1256CH     LINE      ---       ---     ---   #1411
      C1256CH     LINE      ---       ---     ---   #1413
      C12578H     LINE      ---       ---     ---   #1416
      C1257CH     LINE      ---       ---     ---   #1417
      C1257CH     LINE      ---       ---     ---   #1423
      C12580H     LINE      ---       ---     ---   #1427
      C12598H     LINE      ---       ---     ---   #1429
      C1259CH     LINE      ---       ---     ---   #1430
      C1259CH     LINE      ---       ---     ---   #1434
      C125A2H     LINE      ---       ---     ---   #1437
      C125BAH     LINE      ---       ---     ---   #1439
      C125BEH     LINE      ---       ---     ---   #1440
      C125BEH     LINE      ---       ---     ---   #1443
      C125C0H     LINE      ---       ---     ---   #1445
      ---         BLOCKEND  LVL=0     ---     ---   

      C125C2H     BLOCK     LVL=0     0026H   ---   SCS_SelectVcoSrcOscHiPrec
      C125C2H     LINE      ---       ---     ---   #1472
      C125C2H     LINE      ---       ---     ---   #1496
      C125C8H     LINE      ---       ---     ---   #1500
      C125E0H     LINE      ---       ---     ---   #1502
      C125E4H     LINE      ---       ---     ---   #1503
      C125E4H     LINE      ---       ---     ---   #1506
      C125E6H     LINE      ---       ---     ---   #1508
      ---         BLOCKEND  LVL=0     ---     ---   

      C125E8H     BLOCK     LVL=0     003EH   ---   SCS_EnableVcoLockEmerg
      C125E8H     BLOCK     LVL=1     003CH   ---   
      000005H     SYMBOL    REG       ---     ---   Work
      ---         BLOCKEND  LVL=1     ---     ---   
      C125E8H     LINE      ---       ---     ---   #1533
      C125E8H     LINE      ---       ---     ---   #1535
      C125E8H     LINE      ---       ---     ---   #1538
      C125F0H     LINE      ---       ---     ---   #1541
      C125F4H     LINE      ---       ---     ---   #1542
      C125F4H     LINE      ---       ---     ---   #1551
      C125FAH     LINE      ---       ---     ---   #1554
      C125FCH     LINE      ---       ---     ---   #1557
      C125FEH     LINE      ---       ---     ---   #1562
      C12604H     LINE      ---       ---     ---   #1565
      C12606H     LINE      ---       ---     ---   #1576
      C1260AH     LINE      ---       ---     ---   #1587
      C1260EH     LINE      ---       ---     ---   #1589
      C12612H     LINE      ---       ---     ---   #1591
      C1261EH     LINE      ---       ---     ---   #1610
      C12622H     LINE      ---       ---     ---   #1611
      C12622H     LINE      ---       ---     ---   #1614
L166 LINKER/LOCATER V5.25                                                             07/29/2021  08:44:04  PAGE 23


      C12624H     LINE      ---       ---     ---   #1616
      ---         BLOCKEND  LVL=0     ---     ---   

      C12626H     BLOCK     LVL=0     0024H   ---   SCS_DisableVcoBypass
      C12626H     LINE      ---       ---     ---   #1642
      C12626H     LINE      ---       ---     ---   #1646
      C1262AH     LINE      ---       ---     ---   #1649
      C12642H     LINE      ---       ---     ---   #1651
      C12646H     LINE      ---       ---     ---   #1652
      C12646H     LINE      ---       ---     ---   #1656
      C12648H     LINE      ---       ---     ---   #1658
      ---         BLOCKEND  LVL=0     ---     ---   

      C1264AH     BLOCK     LVL=0     0024H   ---   SCS_EnableVcoBypass
      C1264AH     LINE      ---       ---     ---   #1684
      C1264AH     LINE      ---       ---     ---   #1688
      C1264EH     LINE      ---       ---     ---   #1691
      C12666H     LINE      ---       ---     ---   #1693
      C1266AH     LINE      ---       ---     ---   #1694
      C1266AH     LINE      ---       ---     ---   #1698
      C1266CH     LINE      ---       ---     ---   #1700
      ---         BLOCKEND  LVL=0     ---     ---   
      C13720H     PUBLIC    LABEL     ---     ---   IO_vInit
      E003D5H     SYMBOL    VAR       ---     ---   PowerCount

      C13720H     BLOCK     LVL=0     007AH   ---   IO_vInit
      C13720H     LINE      ---       ---     ---   #122
      C13720H     LINE      ---       ---     ---   #148
      C13724H     LINE      ---       ---     ---   #149
      C1372CH     LINE      ---       ---     ---   #150
      C13730H     LINE      ---       ---     ---   #151
      C13734H     LINE      ---       ---     ---   #169
      C13738H     LINE      ---       ---     ---   #170
      C1373CH     LINE      ---       ---     ---   #171
      C13740H     LINE      ---       ---     ---   #216
      C13744H     LINE      ---       ---     ---   #217
      C13748H     LINE      ---       ---     ---   #218
      C1374CH     LINE      ---       ---     ---   #245
      C13750H     LINE      ---       ---     ---   #246
      C13754H     LINE      ---       ---     ---   #247
      C13758H     LINE      ---       ---     ---   #248
      C1375CH     LINE      ---       ---     ---   #249
      C13760H     LINE      ---       ---     ---   #271
      C13764H     LINE      ---       ---     ---   #272
      C13768H     LINE      ---       ---     ---   #289
      C1376CH     LINE      ---       ---     ---   #312
      C13770H     LINE      ---       ---     ---   #313
      C13774H     LINE      ---       ---     ---   #314
      C13778H     LINE      ---       ---     ---   #315
      C1377CH     LINE      ---       ---     ---   #335
      C13780H     LINE      ---       ---     ---   #336
      C13784H     LINE      ---       ---     ---   #361
      C13788H     LINE      ---       ---     ---   #362
      C1378CH     LINE      ---       ---     ---   #363
      C13790H     LINE      ---       ---     ---   #364
      C13794H     LINE      ---       ---     ---   #379
      C13798H     LINE      ---       ---     ---   #393
L166 LINKER/LOCATER V5.25                                                             07/29/2021  08:44:04  PAGE 24


      ---         BLOCKEND  LVL=0     ---     ---   
      C13528H     PUBLIC    LABEL     ---     ---   U2C0_SSC_vi0IC
      C13502H     PUBLIC    LABEL     ---     ---   U2C0_SSC_ubTxDataReady
      C133FEH     PUBLIC    LABEL     ---     ---   U2C0_SSC_vInit
      C134D0H     PUBLIC    LABEL     ---     ---   U2C0_SSC_uwGetData
      C134ACH     PUBLIC    LABEL     ---     ---   U2C0_SSC_vSendData
      E005B1H     PUBLIC    VAR       ---     ---   SPItransismit
      E005B2H     SYMBOL    VAR       ---     ---   PowerCount

      C133FEH     BLOCK     LVL=0     00AEH   ---   U2C0_SSC_vInit
      C133FEH     LINE      ---       ---     ---   #122
      C133FEH     LINE      ---       ---     ---   #134
      C1340AH     LINE      ---       ---     ---   #144
      C13414H     LINE      ---       ---     ---   #149
      C13420H     LINE      ---       ---     ---   #157
      C1342CH     LINE      ---       ---     ---   #164
      C13436H     LINE      ---       ---     ---   #166
      C1343AH     LINE      ---       ---     ---   #174
      C13446H     LINE      ---       ---     ---   #175
      C13452H     LINE      ---       ---     ---   #181
      C1345EH     LINE      ---       ---     ---   #183
      C13468H     LINE      ---       ---     ---   #190
      C13474H     LINE      ---       ---     ---   #191
      C1347EH     LINE      ---       ---     ---   #198
      C1348CH     LINE      ---       ---     ---   #209
      C13492H     LINE      ---       ---     ---   #214
      C1349AH     LINE      ---       ---     ---   #219
      C134A2H     LINE      ---       ---     ---   #220
      C134AAH     LINE      ---       ---     ---   #241
      ---         BLOCKEND  LVL=0     ---     ---   

      C134ACH     BLOCK     LVL=0     0024H   ---   U2C0_SSC_vSendData
      000008H     SYMBOL    REG       ---     ---   uwData
      C134ACH     LINE      ---       ---     ---   #272
      C134ACH     LINE      ---       ---     ---   #275
      C134B8H     LINE      ---       ---     ---   #277
      C134CAH     LINE      ---       ---     ---   #278
      C134CEH     LINE      ---       ---     ---   #280
      ---         BLOCKEND  LVL=0     ---     ---   

      C134D0H     BLOCK     LVL=0     0032H   ---   U2C0_SSC_uwGetData
      C134D0H     LINE      ---       ---     ---   #305
      C134D0H     LINE      ---       ---     ---   #307
      C134E8H     LINE      ---       ---     ---   #309
      C134FCH     LINE      ---       ---     ---   #310
      C13500H     LINE      ---       ---     ---   #313
      ---         BLOCKEND  LVL=0     ---     ---   

      C13502H     BLOCK     LVL=0     0026H   ---   U2C0_SSC_ubTxDataReady
      C13502H     BLOCK     LVL=1     0024H   ---   
      00008AH     SYMBOL    REG       ---     ---   ubReturnValue
      ---         BLOCKEND  LVL=1     ---     ---   
      C13502H     LINE      ---       ---     ---   #342
      C13502H     LINE      ---       ---     ---   #343
      C13502H     LINE      ---       ---     ---   #346
      C13504H     LINE      ---       ---     ---   #348
      C13510H     LINE      ---       ---     ---   #350
L166 LINKER/LOCATER V5.25                                                             07/29/2021  08:44:04  PAGE 25


      C13512H     LINE      ---       ---     ---   #351
      C13524H     LINE      ---       ---     ---   #352
      C13524H     LINE      ---       ---     ---   #353
      C13526H     LINE      ---       ---     ---   #355
      ---         BLOCKEND  LVL=0     ---     ---   

      C13528H     BLOCK     LVL=0     0030H   ---   U2C0_SSC_vi0IC
      C13528H     LINE      ---       ---     ---   #382
      C1352EH     LINE      ---       ---     ---   #389
      C1353AH     LINE      ---       ---     ---   #393
      C13540H     LINE      ---       ---     ---   #396
      C13552H     LINE      ---       ---     ---   #397
      ---         BLOCKEND  LVL=0     ---     ---   
      C1381CH     PUBLIC    LABEL     ---     ---   USIC2_vInit
      E00477H     SYMBOL    VAR       ---     ---   PowerCount

      C1381CH     BLOCK     LVL=0     002AH   ---   USIC2_vInit
      C1381CH     LINE      ---       ---     ---   #118
      C1381CH     LINE      ---       ---     ---   #134
      C13826H     LINE      ---       ---     ---   #137
      C13828H     LINE      ---       ---     ---   #139
      C1382AH     LINE      ---       ---     ---   #147
      C13834H     LINE      ---       ---     ---   #151
      C13838H     LINE      ---       ---     ---   #160
      C13844H     LINE      ---       ---     ---   #167
      ---         BLOCKEND  LVL=0     ---     ---   
      C137C6H     PUBLIC    LABEL     ---     ---   GPT1_viTmr3
      C137D6H     PUBLIC    LABEL     ---     ---   GPT1_viTmr2
      C1379AH     PUBLIC    LABEL     ---     ---   GPT1_vInit
      E005A7H     PUBLIC    VAR       ---     ---   CycleFlag
      E005A9H     PUBLIC    VAR       ---     ---   TMsFlag
      E005A8H     SYMBOL    VAR       ---     ---   PowerCount

      C1379AH     BLOCK     LVL=0     002CH   ---   GPT1_vInit
      C1379AH     LINE      ---       ---     ---   #122
      C1379AH     LINE      ---       ---     ---   #130
      C1379EH     LINE      ---       ---     ---   #132
      C137A0H     LINE      ---       ---     ---   #134
      C137A2H     LINE      ---       ---     ---   #154
      C137A6H     LINE      ---       ---     ---   #155
      C137AAH     LINE      ---       ---     ---   #167
      C137AEH     LINE      ---       ---     ---   #168
      C137B2H     LINE      ---       ---     ---   #180
      C137B6H     LINE      ---       ---     ---   #181
      C137BAH     LINE      ---       ---     ---   #198
      C137BEH     LINE      ---       ---     ---   #205
      C137C2H     LINE      ---       ---     ---   #212
      C137C4H     LINE      ---       ---     ---   #214
      ---         BLOCKEND  LVL=0     ---     ---   

      C137C6H     BLOCK     LVL=0     0010H   ---   GPT1_viTmr3
      C137C6H     LINE      ---       ---     ---   #245
      C137C8H     LINE      ---       ---     ---   #248
      C137CEH     LINE      ---       ---     ---   #249
      C137D2H     LINE      ---       ---     ---   #257
      ---         BLOCKEND  LVL=0     ---     ---   

L166 LINKER/LOCATER V5.25                                                             07/29/2021  08:44:04  PAGE 26


      C137D6H     BLOCK     LVL=0     001AH   ---   GPT1_viTmr2
      C137D6H     LINE      ---       ---     ---   #289
      C137DCH     LINE      ---       ---     ---   #292
      C137E2H     LINE      ---       ---     ---   #293
      C137E6H     LINE      ---       ---     ---   #294
      C137EAH     LINE      ---       ---     ---   #302
      ---         BLOCKEND  LVL=0     ---     ---   
      C1386AH     PUBLIC    LABEL     ---     ---   GPT2_vInit
      E004F1H     SYMBOL    VAR       ---     ---   PowerCount

      C1386AH     BLOCK     LVL=0     0022H   ---   GPT2_vInit
      C1386AH     LINE      ---       ---     ---   #123
      C1386AH     LINE      ---       ---     ---   #132
      C1386EH     LINE      ---       ---     ---   #135
      C13870H     LINE      ---       ---     ---   #137
      C13872H     LINE      ---       ---     ---   #156
      C13876H     LINE      ---       ---     ---   #157
      C1387AH     LINE      ---       ---     ---   #172
      C1387EH     LINE      ---       ---     ---   #173
      C13882H     LINE      ---       ---     ---   #184
      C13886H     LINE      ---       ---     ---   #185
      C1388AH     LINE      ---       ---     ---   #202
      ---         BLOCKEND  LVL=0     ---     ---   
      C1388CH     PUBLIC    LABEL     ---     ---   WDT_vInit
      E00563H     SYMBOL    VAR       ---     ---   PowerCount

      C1388CH     BLOCK     LVL=0     0018H   ---   WDT_vInit
      C1388CH     LINE      ---       ---     ---   #123
      C1388CH     LINE      ---       ---     ---   #134
      C13890H     LINE      ---       ---     ---   #135
      C13896H     LINE      ---       ---     ---   #136
      C1389AH     LINE      ---       ---     ---   #138
      C1389EH     LINE      ---       ---     ---   #139
      C138A2H     LINE      ---       ---     ---   #146
      ---         BLOCKEND  LVL=0     ---     ---   
      C12E3EH     PUBLIC    LABEL     ---     ---   CC2_viTmr7
      C12D0EH     PUBLIC    LABEL     ---     ---   PWM_OEClear
      C12DDCH     PUBLIC    LABEL     ---     ---   PWM_OUTPUT
      C12CBAH     PUBLIC    LABEL     ---     ---   CC2_vInit
      C12D00H     PUBLIC    LABEL     ---     ---   Out_Clean
      E00597H     SYMBOL    VAR       ---     ---   PowerCount

      C12CBAH     BLOCK     LVL=0     0046H   ---   CC2_vInit
      C12CBAH     LINE      ---       ---     ---   #122
      C12CBAH     LINE      ---       ---     ---   #134
      C12CBEH     LINE      ---       ---     ---   #138
      C12CC0H     LINE      ---       ---     ---   #140
      C12CC2H     LINE      ---       ---     ---   #163
      C12CC6H     LINE      ---       ---     ---   #166
      C12CCCH     LINE      ---       ---     ---   #168
      C12CD0H     LINE      ---       ---     ---   #183
      C12CD4H     LINE      ---       ---     ---   #195
      C12CD8H     LINE      ---       ---     ---   #205
      C12CDCH     LINE      ---       ---     ---   #215
      C12CE0H     LINE      ---       ---     ---   #225
      C12CE4H     LINE      ---       ---     ---   #287
      C12CE8H     LINE      ---       ---     ---   #297
L166 LINKER/LOCATER V5.25                                                             07/29/2021  08:44:04  PAGE 27


      C12CF0H     LINE      ---       ---     ---   #298
      C12CF4H     LINE      ---       ---     ---   #299
      C12CF8H     LINE      ---       ---     ---   #300
      C12CFCH     LINE      ---       ---     ---   #306
      C12CFEH     LINE      ---       ---     ---   #313
      ---         BLOCKEND  LVL=0     ---     ---   

      C12D00H     BLOCK     LVL=0     000EH   ---   Out_Clean
      C12D00H     LINE      ---       ---     ---   #338
      C12D00H     LINE      ---       ---     ---   #340
      C12D02H     LINE      ---       ---     ---   #341
      C12D0AH     LINE      ---       ---     ---   #342
      C12D0CH     LINE      ---       ---     ---   #343
      ---         BLOCKEND  LVL=0     ---     ---   

      C12D0EH     BLOCK     LVL=0     00CEH   ---   PWM_OEClear
      C12D14H     BLOCK     LVL=1     00C0H   ---   
      00004EH     SYMBOL    REG       ---     ---   LEDOE_PWM1
      00004DH     SYMBOL    REG       ---     ---   LEDOE_PWM2
      000000H     SYMBOL    AUTO      ---     ---   LEDOE_PWM3
      000002H     SYMBOL    AUTO      ---     ---   LEDOE_PWM4
      E00596H     SYMBOL    VAR       ---     ---   PWMcount1
      E00595H     SYMBOL    VAR       ---     ---   PWMcount2
      E00594H     SYMBOL    VAR       ---     ---   PWMcount3
      E00593H     SYMBOL    VAR       ---     ---   PWMcount4
      ---         BLOCKEND  LVL=1     ---     ---   
      C12D0EH     LINE      ---       ---     ---   #344
      C12D14H     LINE      ---       ---     ---   #345
      C12D14H     LINE      ---       ---     ---   #354
      C12D1AH     LINE      ---       ---     ---   #355
      C12D26H     LINE      ---       ---     ---   #356
      C12D32H     LINE      ---       ---     ---   #357
      C12D3EH     LINE      ---       ---     ---   #358
      C12D44H     LINE      ---       ---     ---   #360
      C12D48H     LINE      ---       ---     ---   #361
      C12D50H     LINE      ---       ---     ---   #363
      C12D54H     LINE      ---       ---     ---   #364
      C12D5CH     LINE      ---       ---     ---   #365
      C12D5EH     LINE      ---       ---     ---   #368
      C12D60H     LINE      ---       ---     ---   #369
      C12D64H     LINE      ---       ---     ---   #370
      C12D64H     LINE      ---       ---     ---   #371
      C12D64H     LINE      ---       ---     ---   #372
      C12D6AH     LINE      ---       ---     ---   #374
      C12D6EH     LINE      ---       ---     ---   #375
      C12D76H     LINE      ---       ---     ---   #377
      C12D7AH     LINE      ---       ---     ---   #378
      C12D82H     LINE      ---       ---     ---   #379
      C12D84H     LINE      ---       ---     ---   #382
      C12D86H     LINE      ---       ---     ---   #383
      C12D8AH     LINE      ---       ---     ---   #384
      C12D8AH     LINE      ---       ---     ---   #385
      C12D8AH     LINE      ---       ---     ---   #386
      C12D8EH     LINE      ---       ---     ---   #388
      C12D92H     LINE      ---       ---     ---   #389
      C12D9AH     LINE      ---       ---     ---   #391
      C12D9EH     LINE      ---       ---     ---   #392
L166 LINKER/LOCATER V5.25                                                             07/29/2021  08:44:04  PAGE 28


      C12DA6H     LINE      ---       ---     ---   #393
      C12DA8H     LINE      ---       ---     ---   #396
      C12DAAH     LINE      ---       ---     ---   #397
      C12DAEH     LINE      ---       ---     ---   #398
      C12DAEH     LINE      ---       ---     ---   #399
      C12DAEH     LINE      ---       ---     ---   #400
      C12DB4H     LINE      ---       ---     ---   #402
      C12DB8H     LINE      ---       ---     ---   #403
      C12DC0H     LINE      ---       ---     ---   #405
      C12DC4H     LINE      ---       ---     ---   #406
      C12DCCH     LINE      ---       ---     ---   #407
      C12DCEH     LINE      ---       ---     ---   #410
      C12DD0H     LINE      ---       ---     ---   #411
      C12DD4H     LINE      ---       ---     ---   #412
      C12DD4H     LINE      ---       ---     ---   #413
      ---         BLOCKEND  LVL=0     ---     ---   

      C12DDCH     BLOCK     LVL=0     0062H   ---   PWM_OUTPUT
      C12DDCH     LINE      ---       ---     ---   #415
      C12DDCH     LINE      ---       ---     ---   #417
      C12DF0H     LINE      ---       ---     ---   #418
      C12DF6H     LINE      ---       ---     ---   #420
      C12DF8H     LINE      ---       ---     ---   #421
      C12DFAH     LINE      ---       ---     ---   #424
      C12DFEH     LINE      ---       ---     ---   #425
      C12DFEH     LINE      ---       ---     ---   #426
      C12E08H     LINE      ---       ---     ---   #428
      C12E0AH     LINE      ---       ---     ---   #429
      C12E0CH     LINE      ---       ---     ---   #432
      C12E10H     LINE      ---       ---     ---   #433
      C12E10H     LINE      ---       ---     ---   #434
      C12E1AH     LINE      ---       ---     ---   #436
      C12E1EH     LINE      ---       ---     ---   #437
      C12E20H     LINE      ---       ---     ---   #440
      C12E24H     LINE      ---       ---     ---   #441
      C12E24H     LINE      ---       ---     ---   #442
      C12E32H     LINE      ---       ---     ---   #444
      C12E36H     LINE      ---       ---     ---   #445
      C12E38H     LINE      ---       ---     ---   #448
      C12E3CH     LINE      ---       ---     ---   #449
      C12E3CH     LINE      ---       ---     ---   #450
      ---         BLOCKEND  LVL=0     ---     ---   

      C12E3EH     BLOCK     LVL=0     006CH   ---   CC2_viTmr7
      C12E3EH     LINE      ---       ---     ---   #453
      C12E64H     LINE      ---       ---     ---   #456
      C12E68H     LINE      ---       ---     ---   #459
      C12E76H     LINE      ---       ---     ---   #460
      C12E84H     LINE      ---       ---     ---   #461
      C12E86H     LINE      ---       ---     ---   #464
      ---         BLOCKEND  LVL=0     ---     ---   
      C10DA0H     PUBLIC    LABEL     ---     ---   CAN_vConfigMsgObj
      C1047EH     PUBLIC    LABEL     ---     ---   CAN_vInit
      C11084H     PUBLIC    LABEL     ---     ---   CAN_viSRN1
      C10FBAH     PUBLIC    LABEL     ---     ---   CAN_viSRN0
      C10F56H     PUBLIC    LABEL     ---     ---   CAN_vLoadData
      C10C48H     PUBLIC    LABEL     ---     ---   CAN_vGetMsgObj
L166 LINKER/LOCATER V5.25                                                             07/29/2021  08:44:04  PAGE 29


      C10D8CH     PUBLIC    LABEL     ---     ---   CAN_vTransmit
      E005ABH     PUBLIC    VAR       ---     ---   CANB_RecvFlag
      E005ACH     PUBLIC    VAR       ---     ---   CANA_RecvFlag
      E005AAH     SYMBOL    VAR       ---     ---   PowerCount

      C1047EH     BLOCK     LVL=0     07CAH   ---   CAN_vInit
      C1047EH     LINE      ---       ---     ---   #125
      C1047EH     LINE      ---       ---     ---   #138
      C10482H     LINE      ---       ---     ---   #140
      C10484H     LINE      ---       ---     ---   #142
      C10486H     LINE      ---       ---     ---   #151
      C10492H     LINE      ---       ---     ---   #158
      C10492H     LINE      ---       ---     ---   #160
      C1049EH     LINE      ---       ---     ---   #169
      C104AAH     LINE      ---       ---     ---   #173
      C104B4H     LINE      ---       ---     ---   #180
      C104BCH     LINE      ---       ---     ---   #181
      C104C6H     LINE      ---       ---     ---   #192
      C104D2H     LINE      ---       ---     ---   #197
      C104DEH     LINE      ---       ---     ---   #198
      C104E8H     LINE      ---       ---     ---   #205
      C104ECH     LINE      ---       ---     ---   #206
      C104F0H     LINE      ---       ---     ---   #215
      C104FCH     LINE      ---       ---     ---   #224
      C10500H     LINE      ---       ---     ---   #228
      C1050AH     LINE      ---       ---     ---   #235
      C10512H     LINE      ---       ---     ---   #236
      C1051CH     LINE      ---       ---     ---   #247
      C10528H     LINE      ---       ---     ---   #252
      C10534H     LINE      ---       ---     ---   #253
      C1053EH     LINE      ---       ---     ---   #260
      C10542H     LINE      ---       ---     ---   #261
      C10546H     LINE      ---       ---     ---   #270
      C10552H     LINE      ---       ---     ---   #279
      C10556H     LINE      ---       ---     ---   #288
      C1055AH     LINE      ---       ---     ---   #296
      C1057CH     LINE      ---       ---     ---   #298
      C1059EH     LINE      ---       ---     ---   #300
      C105C0H     LINE      ---       ---     ---   #302
      C105E2H     LINE      ---       ---     ---   #304
      C10604H     LINE      ---       ---     ---   #308
      C10626H     LINE      ---       ---     ---   #310
      C10648H     LINE      ---       ---     ---   #312
      C1066AH     LINE      ---       ---     ---   #314
      C1068CH     LINE      ---       ---     ---   #316
      C106AEH     LINE      ---       ---     ---   #330
      C106BAH     LINE      ---       ---     ---   #331
      C106C4H     LINE      ---       ---     ---   #339
      C106D0H     LINE      ---       ---     ---   #340
      C106DAH     LINE      ---       ---     ---   #344
      C106DEH     LINE      ---       ---     ---   #345
      C106E2H     LINE      ---       ---     ---   #346
      C106EAH     LINE      ---       ---     ---   #347
      C106EEH     LINE      ---       ---     ---   #353
      C106FAH     LINE      ---       ---     ---   #354
      C10704H     LINE      ---       ---     ---   #359
      C10708H     LINE      ---       ---     ---   #360
L166 LINKER/LOCATER V5.25                                                             07/29/2021  08:44:04  PAGE 30


      C1070CH     LINE      ---       ---     ---   #364
      C10714H     LINE      ---       ---     ---   #366
      C10718H     LINE      ---       ---     ---   #373
      C10724H     LINE      ---       ---     ---   #374
      C1072EH     LINE      ---       ---     ---   #385
      C1073AH     LINE      ---       ---     ---   #386
      C10744H     LINE      ---       ---     ---   #394
      C10750H     LINE      ---       ---     ---   #395
      C1075AH     LINE      ---       ---     ---   #401
      C10766H     LINE      ---       ---     ---   #402
      C10770H     LINE      ---       ---     ---   #408
      C10774H     LINE      ---       ---     ---   #409
      C10780H     LINE      ---       ---     ---   #413
      C1078AH     LINE      ---       ---     ---   #415
      C1078EH     LINE      ---       ---     ---   #424
      C1079AH     LINE      ---       ---     ---   #425
      C107A4H     LINE      ---       ---     ---   #436
      C107B0H     LINE      ---       ---     ---   #437
      C107BAH     LINE      ---       ---     ---   #445
      C107C6H     LINE      ---       ---     ---   #446
      C107D0H     LINE      ---       ---     ---   #450
      C107D4H     LINE      ---       ---     ---   #451
      C107D8H     LINE      ---       ---     ---   #452
      C107E0H     LINE      ---       ---     ---   #453
      C107E4H     LINE      ---       ---     ---   #459
      C107F0H     LINE      ---       ---     ---   #460
      C107FCH     LINE      ---       ---     ---   #465
      C10806H     LINE      ---       ---     ---   #466
      C10812H     LINE      ---       ---     ---   #470
      C1081CH     LINE      ---       ---     ---   #472
      C10820H     LINE      ---       ---     ---   #479
      C1082CH     LINE      ---       ---     ---   #480
      C10836H     LINE      ---       ---     ---   #491
      C10842H     LINE      ---       ---     ---   #492
      C1084CH     LINE      ---       ---     ---   #500
      C10858H     LINE      ---       ---     ---   #501
      C10862H     LINE      ---       ---     ---   #505
      C10866H     LINE      ---       ---     ---   #506
      C1086AH     LINE      ---       ---     ---   #507
      C10872H     LINE      ---       ---     ---   #508
      C10876H     LINE      ---       ---     ---   #514
      C10882H     LINE      ---       ---     ---   #515
      C1088EH     LINE      ---       ---     ---   #520
      C10898H     LINE      ---       ---     ---   #521
      C108A4H     LINE      ---       ---     ---   #525
      C108AEH     LINE      ---       ---     ---   #527
      C108B2H     LINE      ---       ---     ---   #534
      C108BEH     LINE      ---       ---     ---   #535
      C108C8H     LINE      ---       ---     ---   #546
      C108D4H     LINE      ---       ---     ---   #547
      C108DEH     LINE      ---       ---     ---   #555
      C108EAH     LINE      ---       ---     ---   #556
      C108F4H     LINE      ---       ---     ---   #560
      C108F8H     LINE      ---       ---     ---   #561
      C108FCH     LINE      ---       ---     ---   #562
      C10904H     LINE      ---       ---     ---   #563
      C10908H     LINE      ---       ---     ---   #569
L166 LINKER/LOCATER V5.25                                                             07/29/2021  08:44:04  PAGE 31


      C10914H     LINE      ---       ---     ---   #570
      C10920H     LINE      ---       ---     ---   #575
      C1092AH     LINE      ---       ---     ---   #576
      C10936H     LINE      ---       ---     ---   #580
      C10940H     LINE      ---       ---     ---   #582
      C10944H     LINE      ---       ---     ---   #589
      C10950H     LINE      ---       ---     ---   #590
      C1095AH     LINE      ---       ---     ---   #613
      C10966H     LINE      ---       ---     ---   #614
      C10970H     LINE      ---       ---     ---   #622
      C1097CH     LINE      ---       ---     ---   #623
      C10986H     LINE      ---       ---     ---   #627
      C1098AH     LINE      ---       ---     ---   #628
      C1098EH     LINE      ---       ---     ---   #629
      C10996H     LINE      ---       ---     ---   #630
      C1099AH     LINE      ---       ---     ---   #636
      C109A6H     LINE      ---       ---     ---   #637
      C109B2H     LINE      ---       ---     ---   #642
      C109BCH     LINE      ---       ---     ---   #643
      C109C8H     LINE      ---       ---     ---   #647
      C109D2H     LINE      ---       ---     ---   #649
      C109D6H     LINE      ---       ---     ---   #656
      C109E2H     LINE      ---       ---     ---   #657
      C109ECH     LINE      ---       ---     ---   #668
      C109F8H     LINE      ---       ---     ---   #669
      C10A02H     LINE      ---       ---     ---   #677
      C10A0EH     LINE      ---       ---     ---   #678
      C10A18H     LINE      ---       ---     ---   #684
      C10A24H     LINE      ---       ---     ---   #685
      C10A2EH     LINE      ---       ---     ---   #691
      C10A32H     LINE      ---       ---     ---   #692
      C10A3EH     LINE      ---       ---     ---   #696
      C10A48H     LINE      ---       ---     ---   #698
      C10A4CH     LINE      ---       ---     ---   #707
      C10A58H     LINE      ---       ---     ---   #708
      C10A62H     LINE      ---       ---     ---   #719
      C10A6EH     LINE      ---       ---     ---   #720
      C10A78H     LINE      ---       ---     ---   #728
      C10A84H     LINE      ---       ---     ---   #729
      C10A8EH     LINE      ---       ---     ---   #733
      C10A92H     LINE      ---       ---     ---   #734
      C10A96H     LINE      ---       ---     ---   #735
      C10A9EH     LINE      ---       ---     ---   #736
      C10AA2H     LINE      ---       ---     ---   #742
      C10AAEH     LINE      ---       ---     ---   #743
      C10ABAH     LINE      ---       ---     ---   #748
      C10AC4H     LINE      ---       ---     ---   #749
      C10AD0H     LINE      ---       ---     ---   #753
      C10ADAH     LINE      ---       ---     ---   #755
      C10ADEH     LINE      ---       ---     ---   #763
      C10AEAH     LINE      ---       ---     ---   #764
      C10AF4H     LINE      ---       ---     ---   #775
      C10B00H     LINE      ---       ---     ---   #776
      C10B0AH     LINE      ---       ---     ---   #784
      C10B16H     LINE      ---       ---     ---   #785
      C10B20H     LINE      ---       ---     ---   #789
      C10B24H     LINE      ---       ---     ---   #790
L166 LINKER/LOCATER V5.25                                                             07/29/2021  08:44:04  PAGE 32


      C10B28H     LINE      ---       ---     ---   #791
      C10B30H     LINE      ---       ---     ---   #792
      C10B34H     LINE      ---       ---     ---   #798
      C10B40H     LINE      ---       ---     ---   #799
      C10B4CH     LINE      ---       ---     ---   #804
      C10B56H     LINE      ---       ---     ---   #805
      C10B62H     LINE      ---       ---     ---   #809
      C10B6CH     LINE      ---       ---     ---   #811
      C10B70H     LINE      ---       ---     ---   #819
      C10B7CH     LINE      ---       ---     ---   #820
      C10B86H     LINE      ---       ---     ---   #831
      C10B92H     LINE      ---       ---     ---   #832
      C10B9CH     LINE      ---       ---     ---   #840
      C10BA8H     LINE      ---       ---     ---   #841
      C10BB2H     LINE      ---       ---     ---   #845
      C10BB6H     LINE      ---       ---     ---   #846
      C10BBAH     LINE      ---       ---     ---   #847
      C10BC2H     LINE      ---       ---     ---   #848
      C10BC6H     LINE      ---       ---     ---   #854
      C10BD2H     LINE      ---       ---     ---   #855
      C10BDEH     LINE      ---       ---     ---   #860
      C10BE8H     LINE      ---       ---     ---   #861
      C10BF4H     LINE      ---       ---     ---   #865
      C10BFEH     LINE      ---       ---     ---   #867
      C10C02H     LINE      ---       ---     ---   #875
      C10C0EH     LINE      ---       ---     ---   #876
      C10C18H     LINE      ---       ---     ---   #1347
      C10C1EH     LINE      ---       ---     ---   #1354
      C10C22H     LINE      ---       ---     ---   #1363
      C10C36H     LINE      ---       ---     ---   #1366
      C10C46H     LINE      ---       ---     ---   #1374
      ---         BLOCKEND  LVL=0     ---     ---   

      C10C48H     BLOCK     LVL=0     0144H   ---   CAN_vGetMsgObj
      000084H     SYMBOL    REG       ---     ---   ubObjNr
      00000AH     SYMBOL    REG       ---     ---   pstObj
      C10C4CH     BLOCK     LVL=1     013EH   ---   
      00008EH     SYMBOL    REG       ---     ---   i
      ---         BLOCKEND  LVL=1     ---     ---   
      C10C48H     LINE      ---       ---     ---   #1407
      C10C4CH     LINE      ---       ---     ---   #1408
      C10C4CH     LINE      ---       ---     ---   #1412
      C10C62H     LINE      ---       ---     ---   #1415
      C10C66H     LINE      ---       ---     ---   #1417
      C10C80H     LINE      ---       ---     ---   #1418
      C10C88H     LINE      ---       ---     ---   #1421
      C10CA4H     LINE      ---       ---     ---   #1424
      C10CB4H     LINE      ---       ---     ---   #1427
      C10CDCH     LINE      ---       ---     ---   #1429
      C10CE6H     LINE      ---       ---     ---   #1430
      C10CE8H     LINE      ---       ---     ---   #1434
      C10D00H     LINE      ---       ---     ---   #1435
      C10D00H     LINE      ---       ---     ---   #1438
      C10D1CH     LINE      ---       ---     ---   #1440
      C10D34H     LINE      ---       ---     ---   #1441
      C10D36H     LINE      ---       ---     ---   #1444
      C10D5EH     LINE      ---       ---     ---   #1445
L166 LINKER/LOCATER V5.25                                                             07/29/2021  08:44:04  PAGE 33


      C10D5EH     LINE      ---       ---     ---   #1448
      C10D7AH     LINE      ---       ---     ---   #1451
      C10D8AH     LINE      ---       ---     ---   #1453
      ---         BLOCKEND  LVL=0     ---     ---   

      C10D8CH     BLOCK     LVL=0     0014H   ---   CAN_vTransmit
      000048H     SYMBOL    REG       ---     ---   ubObjNr
      C10D8CH     LINE      ---       ---     ---   #1482
      C10D8CH     LINE      ---       ---     ---   #1485
      C10D9EH     LINE      ---       ---     ---   #1487
      ---         BLOCKEND  LVL=0     ---     ---   

      C10DA0H     BLOCK     LVL=0     01B6H   ---   CAN_vConfigMsgObj
      000048H     SYMBOL    REG       ---     ---   ubObjNr
      000009H     SYMBOL    REG       ---     ---   pstObj
      C10DA0H     BLOCK     LVL=1     01B4H   ---   
      00008EH     SYMBOL    REG       ---     ---   i
      ---         BLOCKEND  LVL=1     ---     ---   
      C10DA0H     LINE      ---       ---     ---   #1524
      C10DA0H     LINE      ---       ---     ---   #1525
      C10DA0H     LINE      ---       ---     ---   #1529
      C10DB0H     LINE      ---       ---     ---   #1530
      C10DBCH     LINE      ---       ---     ---   #1533
      C10DCCH     LINE      ---       ---     ---   #1535
      C10DD2H     LINE      ---       ---     ---   #1538
      C10DFAH     LINE      ---       ---     ---   #1539
      C10DFEH     LINE      ---       ---     ---   #1540
      C10E00H     LINE      ---       ---     ---   #1544
      C10E28H     LINE      ---       ---     ---   #1545
      C10E32H     LINE      ---       ---     ---   #1546
      C10E32H     LINE      ---       ---     ---   #1549
      C10E3CH     LINE      ---       ---     ---   #1552
      C10E58H     LINE      ---       ---     ---   #1553
      C10E62H     LINE      ---       ---     ---   #1554
      C10E64H     LINE      ---       ---     ---   #1558
      C10E7CH     LINE      ---       ---     ---   #1559
      C10E80H     LINE      ---       ---     ---   #1560
      C10E80H     LINE      ---       ---     ---   #1563
      C10E9CH     LINE      ---       ---     ---   #1566
      C10EA8H     LINE      ---       ---     ---   #1569
      C10EB8H     LINE      ---       ---     ---   #1570
      C10ED4H     LINE      ---       ---     ---   #1572
      C10EDAH     LINE      ---       ---     ---   #1575
      C10EDEH     LINE      ---       ---     ---   #1577
      C10EFAH     LINE      ---       ---     ---   #1578
      C10F0AH     LINE      ---       ---     ---   #1580
      C10F1CH     LINE      ---       ---     ---   #1582
      C10F1EH     LINE      ---       ---     ---   #1585
      C10F30H     LINE      ---       ---     ---   #1586
      C10F42H     LINE      ---       ---     ---   #1587
      C10F42H     LINE      ---       ---     ---   #1589
      C10F54H     LINE      ---       ---     ---   #1591
      ---         BLOCKEND  LVL=0     ---     ---   

      C10F56H     BLOCK     LVL=0     0064H   ---   CAN_vLoadData
      000048H     SYMBOL    REG       ---     ---   ubObjNr
      000009H     SYMBOL    REG       ---     ---   ubpubData
L166 LINKER/LOCATER V5.25                                                             07/29/2021  08:44:04  PAGE 34


      C10F56H     BLOCK     LVL=1     0062H   ---   
      00008EH     SYMBOL    REG       ---     ---   i
      ---         BLOCKEND  LVL=1     ---     ---   
      C10F56H     LINE      ---       ---     ---   #1622
      C10F56H     LINE      ---       ---     ---   #1623
      C10F56H     LINE      ---       ---     ---   #1626
      C10F66H     LINE      ---       ---     ---   #1628
      C10F6AH     LINE      ---       ---     ---   #1630
      C10F7EH     LINE      ---       ---     ---   #1631
      C10F9AH     LINE      ---       ---     ---   #1633
      C10FACH     LINE      ---       ---     ---   #1634
      C10FB8H     LINE      ---       ---     ---   #1636
      ---         BLOCKEND  LVL=0     ---     ---   

      C10FBAH     BLOCK     LVL=0     00CAH   ---   CAN_viSRN0
      C10FE4H     BLOCK     LVL=1     0078H   ---   
      000005H     SYMBOL    REG       ---     ---   uwSRN0ObjHandler
      000000H     SYMBOL    AUTO      ---     ---   RecvMes
      ---         BLOCKEND  LVL=1     ---     ---   
      C10FBAH     LINE      ---       ---     ---   #1662
      C10FE4H     LINE      ---       ---     ---   #1663
      C10FE4H     LINE      ---       ---     ---   #1669
      C10FE4H     LINE      ---       ---     ---   #1670
      C10FE4H     LINE      ---       ---     ---   #1673
      C10FEEH     LINE      ---       ---     ---   #1674
      C10FF8H     LINE      ---       ---     ---   #1676
      C10FFAH     LINE      ---       ---     ---   #1678
      C11006H     LINE      ---       ---     ---   #1680
      C11006H     LINE      ---       ---     ---   #1682
      C1100EH     LINE      ---       ---     ---   #1684
      C11012H     LINE      ---       ---     ---   #1690
      C11016H     LINE      ---       ---     ---   #1696
      C1101AH     LINE      ---       ---     ---   #1706
      C1101AH     LINE      ---       ---     ---   #1714
      C11022H     LINE      ---       ---     ---   #1715
      C1102AH     LINE      ---       ---     ---   #1718
      C1102AH     LINE      ---       ---     ---   #1720
      C1102AH     LINE      ---       ---     ---   #1722
      C11036H     LINE      ---       ---     ---   #1724
      C11036H     LINE      ---       ---     ---   #1727
      C11042H     LINE      ---       ---     ---   #1728
      C1104EH     LINE      ---       ---     ---   #1734
      C1104EH     LINE      ---       ---     ---   #1736
      C1104EH     LINE      ---       ---     ---   #1742
      C1104EH     LINE      ---       ---     ---   #1744
      C1104EH     LINE      ---       ---     ---   #1750
      C1105CH     LINE      ---       ---     ---   #1757
      ---         BLOCKEND  LVL=0     ---     ---   

      C11084H     BLOCK     LVL=0     00CEH   ---   CAN_viSRN1
      C110AEH     BLOCK     LVL=1     007CH   ---   
      000005H     SYMBOL    REG       ---     ---   uwSRN1ObjHandler
      000000H     SYMBOL    AUTO      ---     ---   RecvMes
      ---         BLOCKEND  LVL=1     ---     ---   
      C11084H     LINE      ---       ---     ---   #1781
      C110AEH     LINE      ---       ---     ---   #1782
      C110AEH     LINE      ---       ---     ---   #1788
L166 LINKER/LOCATER V5.25                                                             07/29/2021  08:44:04  PAGE 35


      C110AEH     LINE      ---       ---     ---   #1789
      C110AEH     LINE      ---       ---     ---   #1792
      C110B8H     LINE      ---       ---     ---   #1793
      C110C4H     LINE      ---       ---     ---   #1795
      C110C6H     LINE      ---       ---     ---   #1797
      C110D4H     LINE      ---       ---     ---   #1799
      C110D4H     LINE      ---       ---     ---   #1801
      C110DCH     LINE      ---       ---     ---   #1803
      C110E0H     LINE      ---       ---     ---   #1809
      C110E4H     LINE      ---       ---     ---   #1815
      C110E8H     LINE      ---       ---     ---   #1825
      C110E8H     LINE      ---       ---     ---   #1833
      C110F0H     LINE      ---       ---     ---   #1834
      C110F8H     LINE      ---       ---     ---   #1838
      C110F8H     LINE      ---       ---     ---   #1840
      C110F8H     LINE      ---       ---     ---   #1842
      C11104H     LINE      ---       ---     ---   #1844
      C11104H     LINE      ---       ---     ---   #1847
      C11110H     LINE      ---       ---     ---   #1848
      C1111CH     LINE      ---       ---     ---   #1854
      C1111CH     LINE      ---       ---     ---   #1856
      C1111CH     LINE      ---       ---     ---   #1862
      C1111CH     LINE      ---       ---     ---   #1864
      C1111CH     LINE      ---       ---     ---   #1870
      C1112AH     LINE      ---       ---     ---   #1877
      ---         BLOCKEND  LVL=0     ---     ---   
      C1280AH     PUBLIC    LABEL     ---     ---   doutDisable
      C1266EH     PUBLIC    LABEL     ---     ---   Watch_Dog
      C12976H     PUBLIC    LABEL     ---     ---   dinDisable
      C12886H     PUBLIC    LABEL     ---     ---   doutByte
      C1267AH     PUBLIC    LABEL     ---     ---   LED_ON
      C12852H     PUBLIC    LABEL     ---     ---   getOUTOE
      C1291CH     PUBLIC    LABEL     ---     ---   dout
      C129BAH     PUBLIC    LABEL     ---     ---   din
      C129FCH     PUBLIC    LABEL     ---     ---   ALLDIN
      C127A8H     PUBLIC    LABEL     ---     ---   ADDR_IO_PORT_IN
      C126E4H     PUBLIC    LABEL     ---     ---   DATA_IO_PORT_IN
      C12834H     PUBLIC    LABEL     ---     ---   writeAddr
      C12674H     PUBLIC    LABEL     ---     ---   LED_Flash
      C12746H     PUBLIC    LABEL     ---     ---   ADDR_IO_PORT_OUT
      C12682H     PUBLIC    LABEL     ---     ---   DATA_IO_PORT_OUT
      C1267EH     PUBLIC    LABEL     ---     ---   LED_OFF
      C12810H     PUBLIC    LABEL     ---     ---   OutBoardClean
      C1281CH     PUBLIC    LABEL     ---     ---   doutEnalbe
      C1299CH     PUBLIC    LABEL     ---     ---   DINwriteAddr
      C1297EH     PUBLIC    LABEL     ---     ---   dinEnable
      C128C0H     PUBLIC    LABEL     ---     ---   OEClear
      E005B0H     SYMBOL    VAR       ---     ---   PowerCount

      C1266EH     BLOCK     LVL=0     0006H   ---   Watch_Dog
      C1266EH     LINE      ---       ---     ---   #16
      C1266EH     LINE      ---       ---     ---   #18
      C12672H     LINE      ---       ---     ---   #19
      ---         BLOCKEND  LVL=0     ---     ---   

      C12674H     BLOCK     LVL=0     0006H   ---   LED_Flash
      C12674H     LINE      ---       ---     ---   #22
L166 LINKER/LOCATER V5.25                                                             07/29/2021  08:44:04  PAGE 36


      C12674H     LINE      ---       ---     ---   #24
      C12678H     LINE      ---       ---     ---   #25
      ---         BLOCKEND  LVL=0     ---     ---   

      C1267AH     BLOCK     LVL=0     0004H   ---   LED_ON
      C1267AH     LINE      ---       ---     ---   #28
      C1267AH     LINE      ---       ---     ---   #30
      C1267CH     LINE      ---       ---     ---   #31
      ---         BLOCKEND  LVL=0     ---     ---   

      C1267EH     BLOCK     LVL=0     0004H   ---   LED_OFF
      C1267EH     LINE      ---       ---     ---   #34
      C1267EH     LINE      ---       ---     ---   #36
      C12680H     LINE      ---       ---     ---   #37
      ---         BLOCKEND  LVL=0     ---     ---   

      C12682H     BLOCK     LVL=0     0062H   ---   DATA_IO_PORT_OUT
      C12682H     LINE      ---       ---     ---   #41
      C12682H     LINE      ---       ---     ---   #43
      C1268EH     LINE      ---       ---     ---   #44
      C1269AH     LINE      ---       ---     ---   #45
      C126A6H     LINE      ---       ---     ---   #46
      C126B2H     LINE      ---       ---     ---   #47
      C126BEH     LINE      ---       ---     ---   #48
      C126CAH     LINE      ---       ---     ---   #49
      C126D6H     LINE      ---       ---     ---   #50
      C126E2H     LINE      ---       ---     ---   #51
      ---         BLOCKEND  LVL=0     ---     ---   

      C126E4H     BLOCK     LVL=0     0062H   ---   DATA_IO_PORT_IN
      C126E4H     LINE      ---       ---     ---   #54
      C126E4H     LINE      ---       ---     ---   #56
      C126F0H     LINE      ---       ---     ---   #57
      C126FCH     LINE      ---       ---     ---   #58
      C12708H     LINE      ---       ---     ---   #59
      C12714H     LINE      ---       ---     ---   #60
      C12720H     LINE      ---       ---     ---   #61
      C1272CH     LINE      ---       ---     ---   #62
      C12738H     LINE      ---       ---     ---   #63
      C12744H     LINE      ---       ---     ---   #64
      ---         BLOCKEND  LVL=0     ---     ---   

      C12746H     BLOCK     LVL=0     0062H   ---   ADDR_IO_PORT_OUT
      C12746H     LINE      ---       ---     ---   #67
      C12746H     LINE      ---       ---     ---   #69
      C12752H     LINE      ---       ---     ---   #70
      C1275EH     LINE      ---       ---     ---   #71
      C1276AH     LINE      ---       ---     ---   #72
      C12776H     LINE      ---       ---     ---   #73
      C12782H     LINE      ---       ---     ---   #74
      C1278EH     LINE      ---       ---     ---   #75
      C1279AH     LINE      ---       ---     ---   #76
      C127A6H     LINE      ---       ---     ---   #77
      ---         BLOCKEND  LVL=0     ---     ---   

      C127A8H     BLOCK     LVL=0     0062H   ---   ADDR_IO_PORT_IN
      C127A8H     LINE      ---       ---     ---   #80
L166 LINKER/LOCATER V5.25                                                             07/29/2021  08:44:04  PAGE 37


      C127A8H     LINE      ---       ---     ---   #82
      C127B4H     LINE      ---       ---     ---   #83
      C127C0H     LINE      ---       ---     ---   #84
      C127CCH     LINE      ---       ---     ---   #85
      C127D8H     LINE      ---       ---     ---   #86
      C127E4H     LINE      ---       ---     ---   #87
      C127F0H     LINE      ---       ---     ---   #88
      C127FCH     LINE      ---       ---     ---   #89
      C12808H     LINE      ---       ---     ---   #90
      ---         BLOCKEND  LVL=0     ---     ---   

      C1280AH     BLOCK     LVL=0     0006H   ---   doutDisable
      C1280AH     LINE      ---       ---     ---   #93
      C1280AH     LINE      ---       ---     ---   #95
      C1280CH     LINE      ---       ---     ---   #96
      C1280EH     LINE      ---       ---     ---   #97
      ---         BLOCKEND  LVL=0     ---     ---   

      C12810H     BLOCK     LVL=0     000CH   ---   OutBoardClean
      C12810H     LINE      ---       ---     ---   #100
      C12810H     LINE      ---       ---     ---   #102
      C12812H     LINE      ---       ---     ---   #103
      C12818H     LINE      ---       ---     ---   #104
      C1281AH     LINE      ---       ---     ---   #105
      ---         BLOCKEND  LVL=0     ---     ---   

      C1281CH     BLOCK     LVL=0     0018H   ---   doutEnalbe
      000048H     SYMBOL    REG       ---     ---   num
      C1281CH     LINE      ---       ---     ---   #108
      C1281CH     LINE      ---       ---     ---   #110
      C12826H     LINE      ---       ---     ---   #112
      C12826H     LINE      ---       ---     ---   #113
      C12828H     LINE      ---       ---     ---   #114
      C1282AH     LINE      ---       ---     ---   #116
      C1282AH     LINE      ---       ---     ---   #117
      C1282CH     LINE      ---       ---     ---   #118
      C1282EH     LINE      ---       ---     ---   #120
      C1282EH     LINE      ---       ---     ---   #121
      C12830H     LINE      ---       ---     ---   #122
      C12830H     LINE      ---       ---     ---   #123
      C12830H     LINE      ---       ---     ---   #124
      C12832H     LINE      ---       ---     ---   #125
      ---         BLOCKEND  LVL=0     ---     ---   

      C12834H     BLOCK     LVL=0     001EH   ---   writeAddr
      000048H     SYMBOL    REG       ---     ---   boardNum
      000049H     SYMBOL    REG       ---     ---   addrId
      C12834H     BLOCK     LVL=1     001CH   ---   
      00008AH     SYMBOL    REG       ---     ---   addr
      ---         BLOCKEND  LVL=1     ---     ---   
      C12834H     LINE      ---       ---     ---   #129
      C12834H     LINE      ---       ---     ---   #130
      C12834H     LINE      ---       ---     ---   #131
      C12836H     LINE      ---       ---     ---   #134
      C12838H     LINE      ---       ---     ---   #135
      C1283EH     LINE      ---       ---     ---   #137
      C12842H     LINE      ---       ---     ---   #138
L166 LINKER/LOCATER V5.25                                                             07/29/2021  08:44:04  PAGE 38


      C12844H     LINE      ---       ---     ---   #140
      C1284AH     LINE      ---       ---     ---   #141
      C12850H     LINE      ---       ---     ---   #142
      ---         BLOCKEND  LVL=0     ---     ---   

      C12852H     BLOCK     LVL=0     0034H   ---   getOUTOE
      00004DH     SYMBOL    REG       ---     ---   boardNum
      C12858H     BLOCK     LVL=1     0028H   ---   
      00004EH     SYMBOL    REG       ---     ---   OEData
      ---         BLOCKEND  LVL=1     ---     ---   
      C12852H     LINE      ---       ---     ---   #146
      C12858H     LINE      ---       ---     ---   #147
      C12858H     LINE      ---       ---     ---   #148
      C1285AH     LINE      ---       ---     ---   #150
      C1285CH     LINE      ---       ---     ---   #151
      C12864H     LINE      ---       ---     ---   #152
      C12868H     LINE      ---       ---     ---   #154
      C1286AH     LINE      ---       ---     ---   #155
      C1286CH     LINE      ---       ---     ---   #156
      C12874H     LINE      ---       ---     ---   #158
      C1287AH     LINE      ---       ---     ---   #160
      C1287CH     LINE      ---       ---     ---   #162
      C1287EH     LINE      ---       ---     ---   #164
      C12880H     LINE      ---       ---     ---   #165
      ---         BLOCKEND  LVL=0     ---     ---   

      C12886H     BLOCK     LVL=0     003AH   ---   doutByte
      00004EH     SYMBOL    REG       ---     ---   boardNum
      00004DH     SYMBOL    REG       ---     ---   data
      C12886H     LINE      ---       ---     ---   #168
      C1288EH     LINE      ---       ---     ---   #170
      C12890H     LINE      ---       ---     ---   #171
      C12894H     LINE      ---       ---     ---   #172
      C1289CH     LINE      ---       ---     ---   #174
      C128A4H     LINE      ---       ---     ---   #175
      C128AAH     LINE      ---       ---     ---   #176
      C128ACH     LINE      ---       ---     ---   #177
      C128AEH     LINE      ---       ---     ---   #179
      C128B6H     LINE      ---       ---     ---   #181
      C128B8H     LINE      ---       ---     ---   #182
      C128BAH     LINE      ---       ---     ---   #183
      ---         BLOCKEND  LVL=0     ---     ---   

      C128C0H     BLOCK     LVL=0     005CH   ---   OEClear
      00004DH     SYMBOL    REG       ---     ---   boardNum
      00004EH     SYMBOL    REG       ---     ---   outData
      C128CCH     BLOCK     LVL=1     0046H   ---   
      E005AEH     SYMBOL    VAR       ---     ---   OEcount
      00004FH     SYMBOL    REG       ---     ---   OEData
      000000H     SYMBOL    AUTO      ---     ---   Outdata
      ---         BLOCKEND  LVL=1     ---     ---   
      C128C0H     LINE      ---       ---     ---   #186
      C128CCH     LINE      ---       ---     ---   #187
      C128CCH     LINE      ---       ---     ---   #189
      C128CEH     LINE      ---       ---     ---   #190
      C128D2H     LINE      ---       ---     ---   #192
      C128DAH     LINE      ---       ---     ---   #194
L166 LINKER/LOCATER V5.25                                                             07/29/2021  08:44:04  PAGE 39


      C128DEH     LINE      ---       ---     ---   #196
      C128E2H     LINE      ---       ---     ---   #197
      C128EAH     LINE      ---       ---     ---   #199
      C128F2H     LINE      ---       ---     ---   #200
      C128FAH     LINE      ---       ---     ---   #201
      C128FEH     LINE      ---       ---     ---   #202
      C128FEH     LINE      ---       ---     ---   #203
      C12906H     LINE      ---       ---     ---   #204
      C1290EH     LINE      ---       ---     ---   #205
      C12910H     LINE      ---       ---     ---   #206
      C12910H     LINE      ---       ---     ---   #208
      C12912H     LINE      ---       ---     ---   #209
      ---         BLOCKEND  LVL=0     ---     ---   

      C1291CH     BLOCK     LVL=0     005AH   ---   dout
      00004DH     SYMBOL    REG       ---     ---   boardNum
      00004EH     SYMBOL    REG       ---     ---   outData
      C1291CH     LINE      ---       ---     ---   #212
      C12924H     LINE      ---       ---     ---   #214
      C12930H     LINE      ---       ---     ---   #216
      C1293AH     LINE      ---       ---     ---   #217
      C1293AH     LINE      ---       ---     ---   #218
      C12944H     LINE      ---       ---     ---   #219
      C1294CH     LINE      ---       ---     ---   #220
      C12956H     LINE      ---       ---     ---   #222
      C12956H     LINE      ---       ---     ---   #224
      C12960H     LINE      ---       ---     ---   #226
      C12962H     LINE      ---       ---     ---   #227
      C12962H     LINE      ---       ---     ---   #229
      C12970H     LINE      ---       ---     ---   #231
      C12970H     LINE      ---       ---     ---   #232
      C12970H     LINE      ---       ---     ---   #233
      ---         BLOCKEND  LVL=0     ---     ---   

      C12976H     BLOCK     LVL=0     0008H   ---   dinDisable
      C12976H     LINE      ---       ---     ---   #237
      C12976H     LINE      ---       ---     ---   #239
      C12978H     LINE      ---       ---     ---   #240
      C1297AH     LINE      ---       ---     ---   #241
      C1297CH     LINE      ---       ---     ---   #242
      ---         BLOCKEND  LVL=0     ---     ---   

      C1297EH     BLOCK     LVL=0     001EH   ---   dinEnable
      000048H     SYMBOL    REG       ---     ---   boardNum
      C1297EH     LINE      ---       ---     ---   #245
      C1297EH     LINE      ---       ---     ---   #247
      C1298CH     LINE      ---       ---     ---   #249
      C1298CH     LINE      ---       ---     ---   #250
      C1298EH     LINE      ---       ---     ---   #251
      C12990H     LINE      ---       ---     ---   #253
      C12990H     LINE      ---       ---     ---   #254
      C12992H     LINE      ---       ---     ---   #255
      C12994H     LINE      ---       ---     ---   #257
      C12994H     LINE      ---       ---     ---   #258
      C12996H     LINE      ---       ---     ---   #259
      C12998H     LINE      ---       ---     ---   #261
      C12998H     LINE      ---       ---     ---   #262
L166 LINKER/LOCATER V5.25                                                             07/29/2021  08:44:04  PAGE 40


      C1299AH     LINE      ---       ---     ---   #263
      C1299AH     LINE      ---       ---     ---   #264
      C1299AH     LINE      ---       ---     ---   #265
      ---         BLOCKEND  LVL=0     ---     ---   

      C1299CH     BLOCK     LVL=0     001EH   ---   DINwriteAddr
      000048H     SYMBOL    REG       ---     ---   boardNum
      000049H     SYMBOL    REG       ---     ---   addrId
      C1299CH     BLOCK     LVL=1     001CH   ---   
      00008AH     SYMBOL    REG       ---     ---   addr
      ---         BLOCKEND  LVL=1     ---     ---   
      C1299CH     LINE      ---       ---     ---   #268
      C1299CH     LINE      ---       ---     ---   #269
      C1299CH     LINE      ---       ---     ---   #270
      C1299EH     LINE      ---       ---     ---   #272
      C129A0H     LINE      ---       ---     ---   #273
      C129A6H     LINE      ---       ---     ---   #275
      C129AAH     LINE      ---       ---     ---   #276
      C129ACH     LINE      ---       ---     ---   #278
      C129B2H     LINE      ---       ---     ---   #279
      C129B8H     LINE      ---       ---     ---   #280
      ---         BLOCKEND  LVL=0     ---     ---   

      C129BAH     BLOCK     LVL=0     0042H   ---   din
      00004EH     SYMBOL    REG       ---     ---   boardNum
      00004DH     SYMBOL    REG       ---     ---   byteNum
      C129C4H     BLOCK     LVL=1     0030H   ---   
      00004FH     SYMBOL    REG       ---     ---   dinData
      ---         BLOCKEND  LVL=1     ---     ---   
      C129BAH     LINE      ---       ---     ---   #283
      C129C4H     LINE      ---       ---     ---   #284
      C129C4H     LINE      ---       ---     ---   #285
      C129C6H     LINE      ---       ---     ---   #287
      C129C8H     LINE      ---       ---     ---   #288
      C129D0H     LINE      ---       ---     ---   #289
      C129D4H     LINE      ---       ---     ---   #291
      C129D6H     LINE      ---       ---     ---   #292
      C129D8H     LINE      ---       ---     ---   #293
      C129E2H     LINE      ---       ---     ---   #294
      C129E8H     LINE      ---       ---     ---   #295
      C129F0H     LINE      ---       ---     ---   #296
      C129F2H     LINE      ---       ---     ---   #298
      C129F4H     LINE      ---       ---     ---   #299
      ---         BLOCKEND  LVL=0     ---     ---   

      C129FCH     BLOCK     LVL=0     00CCH   ---   ALLDIN
      C129FCH     LINE      ---       ---     ---   #313
      C129FCH     LINE      ---       ---     ---   #315
      C12A06H     LINE      ---       ---     ---   #316
      C12A10H     LINE      ---       ---     ---   #317
      C12A1AH     LINE      ---       ---     ---   #318
      C12A24H     LINE      ---       ---     ---   #319
      C12A2EH     LINE      ---       ---     ---   #320
      C12A38H     LINE      ---       ---     ---   #321
      C12A42H     LINE      ---       ---     ---   #322
      C12A4CH     LINE      ---       ---     ---   #326
      C12A84H     LINE      ---       ---     ---   #328
L166 LINKER/LOCATER V5.25                                                             07/29/2021  08:44:04  PAGE 41


      C12A98H     LINE      ---       ---     ---   #329
      C12AA8H     LINE      ---       ---     ---   #330
      C12AB8H     LINE      ---       ---     ---   #331
      C12AC6H     LINE      ---       ---     ---   #332
      ---         BLOCKEND  LVL=0     ---     ---   
      C137F0H     PUBLIC    LABEL     ---     ---   DelayMs
      C1380AH     PUBLIC    LABEL     ---     ---   delay
      E005B4H     PUBLIC    VAR       ---     ---   OneSecond
      E005B3H     SYMBOL    VAR       ---     ---   PowerCount

      C137F0H     BLOCK     LVL=0     001AH   ---   DelayMs
      000048H     SYMBOL    REG       ---     ---   n
      C137F0H     BLOCK     LVL=1     0018H   ---   
      00008CH     SYMBOL    REG       ---     ---   i
      ---         BLOCKEND  LVL=1     ---     ---   
      C137F0H     LINE      ---       ---     ---   #5
      C137F0H     LINE      ---       ---     ---   #6
      C137F0H     LINE      ---       ---     ---   #7
      C137F2H     LINE      ---       ---     ---   #9
      C137F4H     LINE      ---       ---     ---   #11
      C137F8H     LINE      ---       ---     ---   #12
      C137FAH     LINE      ---       ---     ---   #13
      C13800H     LINE      ---       ---     ---   #14
      C13808H     LINE      ---       ---     ---   #15
      ---         BLOCKEND  LVL=0     ---     ---   

      C1380AH     BLOCK     LVL=0     0012H   ---   delay
      000008H     SYMBOL    REG       ---     ---   n
      C1380AH     BLOCK     LVL=1     0010H   ---   
      000005H     SYMBOL    REG       ---     ---   i
      000006H     SYMBOL    REG       ---     ---   j
      ---         BLOCKEND  LVL=1     ---     ---   
      C1380AH     LINE      ---       ---     ---   #18
      C1380AH     LINE      ---       ---     ---   #19
      C1380AH     LINE      ---       ---     ---   #21
      C1380CH     LINE      ---       ---     ---   #23
      C13816H     LINE      ---       ---     ---   #24
      C1381AH     LINE      ---       ---     ---   #25
      ---         BLOCKEND  LVL=0     ---     ---   
      C130D8H     PUBLIC    LABEL     ---     ---   ADConvert
      C13098H     PUBLIC    LABEL     ---     ---   SPICommunicate
      C131FAH     PUBLIC    LABEL     ---     ---   GatAllAD
      C1313AH     PUBLIC    LABEL     ---     ---   sample1
      C130CAH     PUBLIC    LABEL     ---     ---   GetADData
      C130BCH     PUBLIC    LABEL     ---     ---   CSAD
      C130B8H     PUBLIC    LABEL     ---     ---   ResetAD
      C131B0H     PUBLIC    LABEL     ---     ---   sample_SingleChannel
      C04078H     SYMBOL    VAR       ---     ---   ?tpl?0001
      E00320H     PUBLIC    VAR       ---     ---   sample_data
      E003D4H     SYMBOL    VAR       ---     ---   PowerCount

      C13098H     BLOCK     LVL=0     0020H   ---   SPICommunicate
      000005H     SYMBOL    REG       ---     ---   SPIdata
      C1309CH     BLOCK     LVL=1     0018H   ---   
      00000DH     SYMBOL    REG       ---     ---   Rdata
      ---         BLOCKEND  LVL=1     ---     ---   
      C13098H     LINE      ---       ---     ---   #15
L166 LINKER/LOCATER V5.25                                                             07/29/2021  08:44:04  PAGE 42


      C1309CH     LINE      ---       ---     ---   #16
      C1309CH     LINE      ---       ---     ---   #17
      C1309EH     LINE      ---       ---     ---   #18
      C130A4H     LINE      ---       ---     ---   #19
      C130A8H     LINE      ---       ---     ---   #20
      C130AEH     LINE      ---       ---     ---   #22
      C130B4H     LINE      ---       ---     ---   #24
      C130B4H     LINE      ---       ---     ---   #25
      ---         BLOCKEND  LVL=0     ---     ---   

      C130B8H     BLOCK     LVL=0     0004H   ---   ResetAD
      C130B8H     LINE      ---       ---     ---   #28
      C130B8H     LINE      ---       ---     ---   #30
      C130BAH     LINE      ---       ---     ---   #31
      ---         BLOCKEND  LVL=0     ---     ---   

      C130BCH     BLOCK     LVL=0     000EH   ---   CSAD
      000048H     SYMBOL    REG       ---     ---   num
      C130BCH     LINE      ---       ---     ---   #34
      C130BCH     LINE      ---       ---     ---   #36
      C130C2H     LINE      ---       ---     ---   #38
      C130C2H     LINE      ---       ---     ---   #39
      C130C4H     LINE      ---       ---     ---   #40
      C130C6H     LINE      ---       ---     ---   #42
      C130C6H     LINE      ---       ---     ---   #43
      C130C8H     LINE      ---       ---     ---   #44
      C130C8H     LINE      ---       ---     ---   #45
      C130C8H     LINE      ---       ---     ---   #46
      ---         BLOCKEND  LVL=0     ---     ---   

      C130CAH     BLOCK     LVL=0     000EH   ---   GetADData
      000005H     SYMBOL    REG       ---     ---   CMDdata
      C130CEH     BLOCK     LVL=1     0006H   ---   
      00000DH     SYMBOL    REG       ---     ---   ADConvertData
      ---         BLOCKEND  LVL=1     ---     ---   
      C130CAH     LINE      ---       ---     ---   #49
      C130CEH     LINE      ---       ---     ---   #50
      C130CEH     LINE      ---       ---     ---   #51
      C130D0H     LINE      ---       ---     ---   #53
      C130D4H     LINE      ---       ---     ---   #55
      C130D4H     LINE      ---       ---     ---   #56
      ---         BLOCKEND  LVL=0     ---     ---   

      C130D8H     BLOCK     LVL=0     0062H   ---   ADConvert
      000048H     SYMBOL    REG       ---     ---   ADnum
      000049H     SYMBOL    REG       ---     ---   channel
      C130E2H     BLOCK     LVL=1     004CH   ---   
      00000FH     SYMBOL    REG       ---     ---   RData1
      00000EH     SYMBOL    REG       ---     ---   RData2
      00000DH     SYMBOL    REG       ---     ---   ADData
      000000H     SYMBOL    AUTO      ---     ---   ADCommond
      ---         BLOCKEND  LVL=1     ---     ---   
      C130D8H     LINE      ---       ---     ---   #59
      C130E2H     LINE      ---       ---     ---   #60
      C130E2H     LINE      ---       ---     ---   #61
      C130E6H     LINE      ---       ---     ---   #62
      C130E8H     LINE      ---       ---     ---   #63
L166 LINKER/LOCATER V5.25                                                             07/29/2021  08:44:04  PAGE 43


      C130FAH     LINE      ---       ---     ---   #66
      C130FCH     LINE      ---       ---     ---   #67
      C13102H     LINE      ---       ---     ---   #69
      C13112H     LINE      ---       ---     ---   #70
      C13118H     LINE      ---       ---     ---   #72
      C1312AH     LINE      ---       ---     ---   #74
      C1312CH     LINE      ---       ---     ---   #76
      C1312EH     LINE      ---       ---     ---   #77
      ---         BLOCKEND  LVL=0     ---     ---   

      C1313AH     BLOCK     LVL=0     0076H   ---   sample1
      000008H     SYMBOL    REG       ---     ---   p_sample
      000009H     SYMBOL    REG       ---     ---   newdata
      C1313AH     BLOCK     LVL=1     0074H   ---   
      000084H     SYMBOL    REG       ---     ---   i
      00000AH     SYMBOL    REG       ---     ---   everage_data
      000007H     SYMBOL    REG       ---     ---   min
      00000CH     SYMBOL    REG       ---     ---   max
      ---         BLOCKEND  LVL=1     ---     ---   
      C1313AH     LINE      ---       ---     ---   #87
      C1313AH     LINE      ---       ---     ---   #88
      C1313AH     LINE      ---       ---     ---   #90
      C1313EH     LINE      ---       ---     ---   #91
      C13142H     LINE      ---       ---     ---   #92
      C13144H     LINE      ---       ---     ---   #93
      C13144H     LINE      ---       ---     ---   #94
      C13144H     LINE      ---       ---     ---   #96
      C13146H     LINE      ---       ---     ---   #97
      C1315CH     LINE      ---       ---     ---   #98
      C13160H     LINE      ---       ---     ---   #100
      C13162H     LINE      ---       ---     ---   #102
      C13170H     LINE      ---       ---     ---   #103
      C13172H     LINE      ---       ---     ---   #104
      C13176H     LINE      ---       ---     ---   #105
      C13178H     LINE      ---       ---     ---   #107
      C13180H     LINE      ---       ---     ---   #108
      C13188H     LINE      ---       ---     ---   #109
      C1319EH     LINE      ---       ---     ---   #110
      C131AEH     LINE      ---       ---     ---   #112
      C131AEH     LINE      ---       ---     ---   #113
      ---         BLOCKEND  LVL=0     ---     ---   

      C131B0H     BLOCK     LVL=0     004AH   ---   sample_SingleChannel
      000048H     SYMBOL    REG       ---     ---   num
      000049H     SYMBOL    REG       ---     ---   Channel
      00004DH     SYMBOL    REG       ---     ---   Data_channle
      C131B8H     BLOCK     LVL=1     003AH   ---   
      00000FH     SYMBOL    REG       ---     ---   newADdata
      000088H     SYMBOL    REG       ---     ---   subChannel
      00000EH     SYMBOL    REG       ---     ---   temp
      ---         BLOCKEND  LVL=1     ---     ---   
      C131B0H     LINE      ---       ---     ---   #117
      C131B8H     LINE      ---       ---     ---   #118
      C131B8H     LINE      ---       ---     ---   #120
      C131BAH     LINE      ---       ---     ---   #122
      C131BCH     LINE      ---       ---     ---   #124
      C131D0H     LINE      ---       ---     ---   #126
L166 LINKER/LOCATER V5.25                                                             07/29/2021  08:44:04  PAGE 44


      C131DAH     LINE      ---       ---     ---   #127
      C131F2H     LINE      ---       ---     ---   #129
      C131F2H     LINE      ---       ---     ---   #130
      ---         BLOCKEND  LVL=0     ---     ---   

      C131FAH     BLOCK     LVL=0     0062H   ---   GatAllAD
      C131FAH     LINE      ---       ---     ---   #133
      C131FAH     LINE      ---       ---     ---   #135
      C13206H     LINE      ---       ---     ---   #136
      C13212H     LINE      ---       ---     ---   #137
      C1321EH     LINE      ---       ---     ---   #138
      C1322AH     LINE      ---       ---     ---   #139
      C13236H     LINE      ---       ---     ---   #140
      C13242H     LINE      ---       ---     ---   #141
      C1324EH     LINE      ---       ---     ---   #142
      C1325AH     LINE      ---       ---     ---   #143
      ---         BLOCKEND  LVL=0     ---     ---   
      E00538H     PUBLIC    VAR       ---     ---   YK_Target
      E0053AH     PUBLIC    VAR       ---     ---   AD_Data
      E0054AH     PUBLIC    VAR       ---     ---   JH_Target
      E0054CH     PUBLIC    VAR       ---     ---   DA_DATA
      E0054EH     PUBLIC    VAR       ---     ---   EP_Fault
      E0054FH     PUBLIC    VAR       ---     ---   DOUT2_data
      E00550H     PUBLIC    VAR       ---     ---   PWM_IN
      E00551H     PUBLIC    VAR       ---     ---   DOUT1_data
      E00552H     PUBLIC    VAR       ---     ---   DOUT_Fed2
      E00553H     PUBLIC    VAR       ---     ---   DOUT_Fed1
      E00554H     PUBLIC    VAR       ---     ---   DIN1_byte6
      E00555H     PUBLIC    VAR       ---     ---   DIN1_byte5
      E00556H     PUBLIC    VAR       ---     ---   DIN1_byte4
      E00557H     PUBLIC    VAR       ---     ---   CPUBoardLife
      E00558H     PUBLIC    VAR       ---     ---   DIN1_byte3
      E00559H     PUBLIC    VAR       ---     ---   DIN1_byte2
      E0055AH     PUBLIC    VAR       ---     ---   DIN1_byte1
      E0055BH     PUBLIC    VAR       ---     ---   OUTOE2
      E0055CH     PUBLIC    VAR       ---     ---   OUTOE1
      E0055DH     PUBLIC    VAR       ---     ---   DIN_Fault
      E0055EH     PUBLIC    VAR       ---     ---   CANdownloadFlag
      E0055FH     PUBLIC    VAR       ---     ---   DOUT_Fault
      E00561H     PUBLIC    VAR       ---     ---   Download_Flag
      E00562H     PUBLIC    VAR       ---     ---   EPBoardLife
      E00560H     SYMBOL    VAR       ---     ---   PowerCount
      C132CEH     PUBLIC    LABEL     ---     ---   canReceive
      C1325CH     PUBLIC    LABEL     ---     ---   can_trans_data_StandardFrame
      C133AEH     PUBLIC    LABEL     ---     ---   canReceive_irq
      E00564H     PUBLIC    VAR       ---     ---   RecvTestMes2
      E00570H     PUBLIC    VAR       ---     ---   RecvTestMes1
      E0057CH     SYMBOL    VAR       ---     ---   PowerCount

      C1325CH     BLOCK     LVL=0     0072H   ---   can_trans_data_StandardFrame
      000048H     SYMBOL    REG       ---     ---   port
      000009H     SYMBOL    REG       ---     ---   m
      C13260H     BLOCK     LVL=1     0068H   ---   
      00008EH     SYMBOL    REG       ---     ---   i
      000000H     SYMBOL    AUTO      ---     ---   m_CAN_MO
      ---         BLOCKEND  LVL=1     ---     ---   
      C1325CH     LINE      ---       ---     ---   #7
L166 LINKER/LOCATER V5.25                                                             07/29/2021  08:44:04  PAGE 45


      C13260H     LINE      ---       ---     ---   #8
      C13260H     LINE      ---       ---     ---   #12
      C1326CH     LINE      ---       ---     ---   #13
      C13278H     LINE      ---       ---     ---   #14
      C13280H     LINE      ---       ---     ---   #16
      C13284H     LINE      ---       ---     ---   #18
      C13296H     LINE      ---       ---     ---   #19
      C132A0H     LINE      ---       ---     ---   #22
      C132AAH     LINE      ---       ---     ---   #24
      C132AAH     LINE      ---       ---     ---   #26
      C132B2H     LINE      ---       ---     ---   #27
      C132B8H     LINE      ---       ---     ---   #28
      C132BAH     LINE      ---       ---     ---   #30
      C132BAH     LINE      ---       ---     ---   #32
      C132C2H     LINE      ---       ---     ---   #33
      C132C8H     LINE      ---       ---     ---   #34
      C132C8H     LINE      ---       ---     ---   #36
      C132C8H     LINE      ---       ---     ---   #37
      C132C8H     LINE      ---       ---     ---   #38
      C132C8H     LINE      ---       ---     ---   #39
      ---         BLOCKEND  LVL=0     ---     ---   

      C132CEH     BLOCK     LVL=0     00E0H   ---   canReceive
      000048H     SYMBOL    REG       ---     ---   port
      00000DH     SYMBOL    REG       ---     ---   m
      C132DAH     BLOCK     LVL=1     00C8H   ---   
      000000H     SYMBOL    AUTO      ---     ---   SW_R
      00004FH     SYMBOL    REG       ---     ---   ret
      00004EH     SYMBOL    REG       ---     ---   i
      ---         BLOCKEND  LVL=1     ---     ---   
      C132CEH     LINE      ---       ---     ---   #41
      C132DAH     LINE      ---       ---     ---   #42
      C132DAH     LINE      ---       ---     ---   #44
      C132DAH     LINE      ---       ---     ---   #45
      C132DCH     LINE      ---       ---     ---   #48
      C132E6H     LINE      ---       ---     ---   #50
      C132E6H     LINE      ---       ---     ---   #51
      C132FEH     LINE      ---       ---     ---   #52
      C13304H     LINE      ---       ---     ---   #54
      C1330CH     LINE      ---       ---     ---   #56
      C13312H     LINE      ---       ---     ---   #58
      C13318H     LINE      ---       ---     ---   #59
      C1331EH     LINE      ---       ---     ---   #60
      C13322H     LINE      ---       ---     ---   #62
      C13336H     LINE      ---       ---     ---   #63
      C13342H     LINE      ---       ---     ---   #64
      C13342H     LINE      ---       ---     ---   #65
      C13344H     LINE      ---       ---     ---   #66
      C13344H     LINE      ---       ---     ---   #67
      C1335CH     LINE      ---       ---     ---   #68
      C13362H     LINE      ---       ---     ---   #70
      C1336AH     LINE      ---       ---     ---   #72
      C13370H     LINE      ---       ---     ---   #73
      C13376H     LINE      ---       ---     ---   #74
      C1337CH     LINE      ---       ---     ---   #75
      C13380H     LINE      ---       ---     ---   #77
      C13394H     LINE      ---       ---     ---   #78
L166 LINKER/LOCATER V5.25                                                             07/29/2021  08:44:04  PAGE 46


      C133A0H     LINE      ---       ---     ---   #79
      C133A0H     LINE      ---       ---     ---   #80
      C133A0H     LINE      ---       ---     ---   #81
      C133A0H     LINE      ---       ---     ---   #82
      C133A2H     LINE      ---       ---     ---   #83
      ---         BLOCKEND  LVL=0     ---     ---   

      C133AEH     BLOCK     LVL=0     0050H   ---   canReceive_irq
      000048H     SYMBOL    REG       ---     ---   ubObjNr
      00000DH     SYMBOL    REG       ---     ---   m
      C133B6H     BLOCK     LVL=1     0040H   ---   
      000000H     SYMBOL    AUTO      ---     ---   SW_R
      00008EH     SYMBOL    REG       ---     ---   i
      ---         BLOCKEND  LVL=1     ---     ---   
      C133AEH     LINE      ---       ---     ---   #85
      C133B6H     LINE      ---       ---     ---   #86
      C133B6H     LINE      ---       ---     ---   #90
      C133C0H     LINE      ---       ---     ---   #92
      C133C6H     LINE      ---       ---     ---   #94
      C133D0H     LINE      ---       ---     ---   #96
      C133D6H     LINE      ---       ---     ---   #97
      C133DAH     LINE      ---       ---     ---   #99
      C133ECH     LINE      ---       ---     ---   #100
      C133F6H     LINE      ---       ---     ---   #101
      ---         BLOCKEND  LVL=0     ---     ---   
      C12B00H     PUBLIC    LABEL     ---     ---   EP_SendAnswer
      C12C8EH     PUBLIC    LABEL     ---     ---   CanDispatch
      C12AC8H     PUBLIC    LABEL     ---     ---   EP_Dispatch
      E0058AH     PUBLIC    VAR       ---     ---   SendMessage_data
      E00592H     SYMBOL    VAR       ---     ---   PowerCount

      C12AC8H     BLOCK     LVL=0     0038H   ---   EP_Dispatch
      000048H     SYMBOL    REG       ---     ---   MessageID
      000009H     SYMBOL    REG       ---     ---   m
      C12AC8H     LINE      ---       ---     ---   #13
      C12AC8H     LINE      ---       ---     ---   #15
      C12ACEH     LINE      ---       ---     ---   #17
      C12ACEH     LINE      ---       ---     ---   #18
      C12AE0H     LINE      ---       ---     ---   #19
      C12AF6H     LINE      ---       ---     ---   #20
      C12AFEH     LINE      ---       ---     ---   #21
      C12AFEH     LINE      ---       ---     ---   #23
      C12AFEH     LINE      ---       ---     ---   #25
      C12AFEH     LINE      ---       ---     ---   #27
      C12AFEH     LINE      ---       ---     ---   #28
      C12AFEH     LINE      ---       ---     ---   #29
      C12AFEH     LINE      ---       ---     ---   #32
      ---         BLOCKEND  LVL=0     ---     ---   

      C12B00H     BLOCK     LVL=0     018EH   ---   EP_SendAnswer
      000048H     SYMBOL    REG       ---     ---   index
      C12B00H     LINE      ---       ---     ---   #36
      C12B00H     LINE      ---       ---     ---   #38
      C12B14H     LINE      ---       ---     ---   #40
      C12B14H     LINE      ---       ---     ---   #41
      C12B1CH     LINE      ---       ---     ---   #42
      C12B24H     LINE      ---       ---     ---   #43
L166 LINKER/LOCATER V5.25                                                             07/29/2021  08:44:04  PAGE 47


      C12B2CH     LINE      ---       ---     ---   #44
      C12B34H     LINE      ---       ---     ---   #45
      C12B3CH     LINE      ---       ---     ---   #46
      C12B46H     LINE      ---       ---     ---   #47
      C12B50H     LINE      ---       ---     ---   #48
      C12B52H     LINE      ---       ---     ---   #50
      C12B52H     LINE      ---       ---     ---   #51
      C12B62H     LINE      ---       ---     ---   #52
      C12B6CH     LINE      ---       ---     ---   #53
      C12B7CH     LINE      ---       ---     ---   #54
      C12B86H     LINE      ---       ---     ---   #55
      C12B96H     LINE      ---       ---     ---   #56
      C12BA0H     LINE      ---       ---     ---   #57
      C12BAAH     LINE      ---       ---     ---   #58
      C12BB4H     LINE      ---       ---     ---   #59
      C12BB6H     LINE      ---       ---     ---   #61
      C12BB6H     LINE      ---       ---     ---   #62
      C12BC6H     LINE      ---       ---     ---   #63
      C12BD0H     LINE      ---       ---     ---   #64
      C12BE0H     LINE      ---       ---     ---   #65
      C12BEAH     LINE      ---       ---     ---   #66
      C12BFAH     LINE      ---       ---     ---   #67
      C12C04H     LINE      ---       ---     ---   #68
      C12C0CH     LINE      ---       ---     ---   #69
      C12C14H     LINE      ---       ---     ---   #70
      C12C1EH     LINE      ---       ---     ---   #71
      C12C28H     LINE      ---       ---     ---   #72
      C12C2AH     LINE      ---       ---     ---   #74
      C12C2AH     LINE      ---       ---     ---   #75
      C12C3AH     LINE      ---       ---     ---   #76
      C12C44H     LINE      ---       ---     ---   #77
      C12C54H     LINE      ---       ---     ---   #78
      C12C5EH     LINE      ---       ---     ---   #79
      C12C6EH     LINE      ---       ---     ---   #80
      C12C78H     LINE      ---       ---     ---   #83
      C12C82H     LINE      ---       ---     ---   #84
      C12C8CH     LINE      ---       ---     ---   #85
      C12C8CH     LINE      ---       ---     ---   #87
      C12C8CH     LINE      ---       ---     ---   #88
      C12C8CH     LINE      ---       ---     ---   #89
      C12C8CH     LINE      ---       ---     ---   #90
      ---         BLOCKEND  LVL=0     ---     ---   

      C12C8EH     BLOCK     LVL=0     002CH   ---   CanDispatch
      000048H     SYMBOL    REG       ---     ---   port
      000005H     SYMBOL    REG       ---     ---   m
      C12C92H     BLOCK     LVL=1     0024H   ---   
      000000H     SYMBOL    AUTO      ---     ---   CANID
      00008EH     SYMBOL    REG       ---     ---   SourceID
      00008CH     SYMBOL    REG       ---     ---   MessageID
      ---         BLOCKEND  LVL=1     ---     ---   
      C12C8EH     LINE      ---       ---     ---   #93
      C12C92H     LINE      ---       ---     ---   #94
      C12C92H     LINE      ---       ---     ---   #95
      C12C96H     LINE      ---       ---     ---   #96
      C12CA4H     LINE      ---       ---     ---   #97
      C12CACH     LINE      ---       ---     ---   #98
L166 LINKER/LOCATER V5.25                                                             07/29/2021  08:44:04  PAGE 48


      C12CB0H     LINE      ---       ---     ---   #100
      C12CB6H     LINE      ---       ---     ---   #101
      C12CB6H     LINE      ---       ---     ---   #103
      C12CB6H     LINE      ---       ---     ---   #104
      ---         BLOCKEND  LVL=0     ---     ---   
      C11E14H     PUBLIC    LABEL     ---     ---   pid2
      C11B20H     PUBLIC    LABEL     ---     ---   pid1
      C11A56H     PUBLIC    LABEL     ---     ---   transfer
      C1210AH     PUBLIC    LABEL     ---     ---   pid_test
      C11B0EH     PUBLIC    LABEL     ---     ---   pid_initial
      C11AFCH     PUBLIC    LABEL     ---     ---   pid_change
      E0052EH     PUBLIC    VAR       ---     ---   out
      E00530H     PUBLIC    VAR       ---     ---   in
      E00536H     PUBLIC    VAR       ---     ---   count
      E00537H     SYMBOL    VAR       ---     ---   PowerCount
      00F800H     PUBLIC    VAR       ---     ---   pid_jh
      00F806H     PUBLIC    VAR       ---     ---   pid_zg

      C11A56H     BLOCK     LVL=0     00A6H   ---   transfer
      000009H     SYMBOL    REG       ---     ---   pid_value
      C11A58H     BLOCK     LVL=1     00A2H   ---   
      00000AH     SYMBOL    REG       ---     ---   temp
      ---         BLOCKEND  LVL=1     ---     ---   
      C11A56H     LINE      ---       ---     ---   #11
      C11A58H     LINE      ---       ---     ---   #12
      C11A58H     LINE      ---       ---     ---   #13
      C11A5CH     LINE      ---       ---     ---   #15
      C11A66H     LINE      ---       ---     ---   #16
      C11A70H     LINE      ---       ---     ---   #17
      C11A74H     LINE      ---       ---     ---   #18
      C11A7EH     LINE      ---       ---     ---   #21
      C11A84H     LINE      ---       ---     ---   #22
      C11A92H     LINE      ---       ---     ---   #23
      C11AA4H     LINE      ---       ---     ---   #24
      C11AAAH     LINE      ---       ---     ---   #25
      C11AAEH     LINE      ---       ---     ---   #26
      C11AAEH     LINE      ---       ---     ---   #28
      C11AB8H     LINE      ---       ---     ---   #29
      C11AC2H     LINE      ---       ---     ---   #30
      C11AC6H     LINE      ---       ---     ---   #31
      C11AD0H     LINE      ---       ---     ---   #34
      C11AD0H     LINE      ---       ---     ---   #35
      C11ADEH     LINE      ---       ---     ---   #36
      C11AF0H     LINE      ---       ---     ---   #37
      C11AF6H     LINE      ---       ---     ---   #38
      C11AFAH     LINE      ---       ---     ---   #39
      C11AFAH     LINE      ---       ---     ---   #40
      ---         BLOCKEND  LVL=0     ---     ---   

      C11AFCH     BLOCK     LVL=0     0012H   ---   pid_change
      C11AFCH     LINE      ---       ---     ---   #46
      C11AFCH     LINE      ---       ---     ---   #48
      C11B04H     LINE      ---       ---     ---   #49
      C11B0CH     LINE      ---       ---     ---   #50
      ---         BLOCKEND  LVL=0     ---     ---   

      C11B0EH     BLOCK     LVL=0     0012H   ---   pid_initial
L166 LINKER/LOCATER V5.25                                                             07/29/2021  08:44:04  PAGE 49


      C11B0EH     LINE      ---       ---     ---   #54
      C11B0EH     LINE      ---       ---     ---   #56
      C11B12H     LINE      ---       ---     ---   #57
      C11B16H     LINE      ---       ---     ---   #58
      C11B1AH     LINE      ---       ---     ---   #59
      C11B1EH     LINE      ---       ---     ---   #60
      ---         BLOCKEND  LVL=0     ---     ---   

      C11B20H     BLOCK     LVL=0     02F4H   ---   pid1
      00000CH     SYMBOL    REG       ---     ---   pPID
      00000DH     SYMBOL    REG       ---     ---   df
      C11B2CH     BLOCK     LVL=1     02DEH   ---   
      00000EH     SYMBOL    REG       ---     ---   e0
      E00535H     SYMBOL    VAR       ---     ---   status
      E0052AH     SYMBOL    VAR       ---     ---   cur
      E00526H     SYMBOL    VAR       ---     ---   target
      E00522H     SYMBOL    VAR       ---     ---   last_target
      E00534H     SYMBOL    VAR       ---     ---   ok
      E00520H     SYMBOL    VAR       ---     ---   total_count
      E0051EH     SYMBOL    VAR       ---     ---   count2
      E0051CH     SYMBOL    VAR       ---     ---   count3
      E0051AH     SYMBOL    VAR       ---     ---   count4
      E00518H     SYMBOL    VAR       ---     ---   min_in
      000000H     SYMBOL    AUTO      ---     ---   pwm_scope_in
      000002H     SYMBOL    AUTO      ---     ---   pwm_scope_out
      E00516H     SYMBOL    VAR       ---     ---   chong_flag
      E00514H     SYMBOL    VAR       ---     ---   pai_flag
      E00512H     SYMBOL    VAR       ---     ---   count_m
      E00510H     SYMBOL    VAR       ---     ---   micr_flag
      ---         BLOCKEND  LVL=1     ---     ---   
      C11B20H     LINE      ---       ---     ---   #78
      C11B2CH     LINE      ---       ---     ---   #79
      C11B2CH     LINE      ---       ---     ---   #81
      C11B2CH     LINE      ---       ---     ---   #87
      C11B30H     LINE      ---       ---     ---   #88
      C11B34H     LINE      ---       ---     ---   #89
      C11B34H     LINE      ---       ---     ---   #90
      C11B34H     LINE      ---       ---     ---   #97
      C11B34H     LINE      ---       ---     ---   #98
      C11B34H     LINE      ---       ---     ---   #100
      C11B38H     LINE      ---       ---     ---   #101
      C11B40H     LINE      ---       ---     ---   #103
      C11B44H     LINE      ---       ---     ---   #104
      C11B48H     LINE      ---       ---     ---   #105
      C11B4AH     LINE      ---       ---     ---   #106
      C11B4EH     LINE      ---       ---     ---   #107
      C11B4EH     LINE      ---       ---     ---   #109
      C11B5AH     LINE      ---       ---     ---   #110
      C11B80H     LINE      ---       ---     ---   #114
      C11B8AH     LINE      ---       ---     ---   #115
      C11B92H     LINE      ---       ---     ---   #117
      C11BB8H     LINE      ---       ---     ---   #118
      C11BBCH     LINE      ---       ---     ---   #119
      C11BC0H     LINE      ---       ---     ---   #121
      C11BE0H     LINE      ---       ---     ---   #123
      C11BEEH     LINE      ---       ---     ---   #125
      C11BFCH     LINE      ---       ---     ---   #127
L166 LINKER/LOCATER V5.25                                                             07/29/2021  08:44:04  PAGE 50


      C11C0AH     LINE      ---       ---     ---   #128
      C11C12H     LINE      ---       ---     ---   #130
      C11C1AH     LINE      ---       ---     ---   #134
      C11C1CH     LINE      ---       ---     ---   #137
      C11C20H     LINE      ---       ---     ---   #138
      C11C28H     LINE      ---       ---     ---   #140
      C11C28H     LINE      ---       ---     ---   #141
      C11C2EH     LINE      ---       ---     ---   #142
      C11C34H     LINE      ---       ---     ---   #143
      C11C38H     LINE      ---       ---     ---   #144
      C11C38H     LINE      ---       ---     ---   #146
      C11C40H     LINE      ---       ---     ---   #148
      C11C40H     LINE      ---       ---     ---   #152
      C11C40H     LINE      ---       ---     ---   #153
      C11C40H     LINE      ---       ---     ---   #155
      C11C4AH     LINE      ---       ---     ---   #157
      C11C4EH     LINE      ---       ---     ---   #158
      C11C54H     LINE      ---       ---     ---   #159
      C11C58H     LINE      ---       ---     ---   #160
      C11C5AH     LINE      ---       ---     ---   #161
      C11C68H     LINE      ---       ---     ---   #163
      C11C6CH     LINE      ---       ---     ---   #164
      C11C72H     LINE      ---       ---     ---   #165
      C11C76H     LINE      ---       ---     ---   #166
      C11C78H     LINE      ---       ---     ---   #168
      C11C7EH     LINE      ---       ---     ---   #169
      C11C82H     LINE      ---       ---     ---   #170
      C11C82H     LINE      ---       ---     ---   #172
      C11C8AH     LINE      ---       ---     ---   #174
      C11C9CH     LINE      ---       ---     ---   #176
      C11CA4H     LINE      ---       ---     ---   #179
      C11CAAH     LINE      ---       ---     ---   #181
      C11CB0H     LINE      ---       ---     ---   #182
      C11CB4H     LINE      ---       ---     ---   #183
      C11CB8H     LINE      ---       ---     ---   #184
      C11CBCH     LINE      ---       ---     ---   #185
      C11CC6H     LINE      ---       ---     ---   #187
      C11CCEH     LINE      ---       ---     ---   #188
      C11CD4H     LINE      ---       ---     ---   #189
      C11CD8H     LINE      ---       ---     ---   #190
      C11CDEH     LINE      ---       ---     ---   #191
      C11CE0H     LINE      ---       ---     ---   #194
      C11CE4H     LINE      ---       ---     ---   #196
      C11CEEH     LINE      ---       ---     ---   #197
      C11CF4H     LINE      ---       ---     ---   #198
      C11CFAH     LINE      ---       ---     ---   #199
      C11CFEH     LINE      ---       ---     ---   #200
      C11CFEH     LINE      ---       ---     ---   #202
      C11D00H     LINE      ---       ---     ---   #203
      C11D04H     LINE      ---       ---     ---   #205
      C11D20H     LINE      ---       ---     ---   #207
      C11D28H     LINE      ---       ---     ---   #210
      C11D2EH     LINE      ---       ---     ---   #212
      C11D32H     LINE      ---       ---     ---   #213
      C11D38H     LINE      ---       ---     ---   #214
      C11D3CH     LINE      ---       ---     ---   #215
      C11D3EH     LINE      ---       ---     ---   #216
L166 LINKER/LOCATER V5.25                                                             07/29/2021  08:44:04  PAGE 51


      C11D4CH     LINE      ---       ---     ---   #218
      C11D54H     LINE      ---       ---     ---   #219
      C11D5AH     LINE      ---       ---     ---   #220
      C11D5EH     LINE      ---       ---     ---   #221
      C11D62H     LINE      ---       ---     ---   #222
      C11D68H     LINE      ---       ---     ---   #223
      C11D6AH     LINE      ---       ---     ---   #226
      C11D6EH     LINE      ---       ---     ---   #227
      C11D78H     LINE      ---       ---     ---   #228
      C11D7EH     LINE      ---       ---     ---   #229
      C11D84H     LINE      ---       ---     ---   #230
      C11D88H     LINE      ---       ---     ---   #231
      C11D88H     LINE      ---       ---     ---   #232
      C11D8AH     LINE      ---       ---     ---   #235
      C11DA4H     LINE      ---       ---     ---   #237
      C11DA8H     LINE      ---       ---     ---   #238
      C11DB0H     LINE      ---       ---     ---   #239
      C11DBAH     LINE      ---       ---     ---   #243
      C11DC0H     LINE      ---       ---     ---   #244
      C11DC4H     LINE      ---       ---     ---   #245
      C11DCAH     LINE      ---       ---     ---   #246
      C11DCAH     LINE      ---       ---     ---   #247
      C11DCCH     LINE      ---       ---     ---   #250
      C11DD2H     LINE      ---       ---     ---   #252
      C11DD2H     LINE      ---       ---     ---   #255
      C11DD8H     LINE      ---       ---     ---   #257
      C11DD8H     LINE      ---       ---     ---   #259
      C11DE6H     LINE      ---       ---     ---   #265
      C11DEEH     LINE      ---       ---     ---   #267
      C11DEEH     LINE      ---       ---     ---   #268
      C11DFCH     LINE      ---       ---     ---   #274
      C11E04H     LINE      ---       ---     ---   #277
      C11E04H     LINE      ---       ---     ---   #278
      C11E0AH     LINE      ---       ---     ---   #279
      C11E0AH     LINE      ---       ---     ---   #280
      ---         BLOCKEND  LVL=0     ---     ---   

      C11E14H     BLOCK     LVL=0     02F6H   ---   pid2
      00000CH     SYMBOL    REG       ---     ---   pPID
      00000DH     SYMBOL    REG       ---     ---   df
      C11E20H     BLOCK     LVL=1     02E0H   ---   
      00000EH     SYMBOL    REG       ---     ---   e0
      E00533H     SYMBOL    VAR       ---     ---   status
      E0050CH     SYMBOL    VAR       ---     ---   cur
      E00508H     SYMBOL    VAR       ---     ---   target
      E00504H     SYMBOL    VAR       ---     ---   last_target
      E00532H     SYMBOL    VAR       ---     ---   ok
      E00502H     SYMBOL    VAR       ---     ---   total_count
      E00500H     SYMBOL    VAR       ---     ---   count2
      E004FEH     SYMBOL    VAR       ---     ---   count3
      E004FCH     SYMBOL    VAR       ---     ---   count4
      E004FAH     SYMBOL    VAR       ---     ---   min_in
      000000H     SYMBOL    AUTO      ---     ---   pwm_scope_in
      000002H     SYMBOL    AUTO      ---     ---   pwm_scope_out
      E004F8H     SYMBOL    VAR       ---     ---   chong_flag
      E004F6H     SYMBOL    VAR       ---     ---   pai_flag
      E004F4H     SYMBOL    VAR       ---     ---   count_m
L166 LINKER/LOCATER V5.25                                                             07/29/2021  08:44:04  PAGE 52


      E004F2H     SYMBOL    VAR       ---     ---   micr_flag
      ---         BLOCKEND  LVL=1     ---     ---   
      C11E14H     LINE      ---       ---     ---   #287
      C11E20H     LINE      ---       ---     ---   #288
      C11E20H     LINE      ---       ---     ---   #290
      C11E20H     LINE      ---       ---     ---   #296
      C11E24H     LINE      ---       ---     ---   #297
      C11E28H     LINE      ---       ---     ---   #298
      C11E28H     LINE      ---       ---     ---   #299
      C11E28H     LINE      ---       ---     ---   #306
      C11E28H     LINE      ---       ---     ---   #307
      C11E28H     LINE      ---       ---     ---   #309
      C11E2CH     LINE      ---       ---     ---   #310
      C11E34H     LINE      ---       ---     ---   #312
      C11E38H     LINE      ---       ---     ---   #313
      C11E3CH     LINE      ---       ---     ---   #314
      C11E40H     LINE      ---       ---     ---   #315
      C11E44H     LINE      ---       ---     ---   #316
      C11E44H     LINE      ---       ---     ---   #318
      C11E50H     LINE      ---       ---     ---   #319
      C11E76H     LINE      ---       ---     ---   #323
      C11E80H     LINE      ---       ---     ---   #324
      C11E88H     LINE      ---       ---     ---   #326
      C11EAEH     LINE      ---       ---     ---   #327
      C11EB2H     LINE      ---       ---     ---   #328
      C11EB6H     LINE      ---       ---     ---   #330
      C11ED6H     LINE      ---       ---     ---   #332
      C11EE4H     LINE      ---       ---     ---   #334
      C11EF2H     LINE      ---       ---     ---   #336
      C11F00H     LINE      ---       ---     ---   #337
      C11F08H     LINE      ---       ---     ---   #339
      C11F10H     LINE      ---       ---     ---   #343
      C11F12H     LINE      ---       ---     ---   #346
      C11F16H     LINE      ---       ---     ---   #347
      C11F1EH     LINE      ---       ---     ---   #349
      C11F1EH     LINE      ---       ---     ---   #350
      C11F24H     LINE      ---       ---     ---   #351
      C11F2AH     LINE      ---       ---     ---   #352
      C11F2EH     LINE      ---       ---     ---   #353
      C11F2EH     LINE      ---       ---     ---   #355
      C11F36H     LINE      ---       ---     ---   #357
      C11F36H     LINE      ---       ---     ---   #361
      C11F36H     LINE      ---       ---     ---   #362
      C11F36H     LINE      ---       ---     ---   #364
      C11F40H     LINE      ---       ---     ---   #366
      C11F44H     LINE      ---       ---     ---   #367
      C11F4AH     LINE      ---       ---     ---   #368
      C11F4EH     LINE      ---       ---     ---   #369
      C11F50H     LINE      ---       ---     ---   #370
      C11F5EH     LINE      ---       ---     ---   #372
      C11F62H     LINE      ---       ---     ---   #373
      C11F68H     LINE      ---       ---     ---   #374
      C11F6CH     LINE      ---       ---     ---   #375
      C11F6EH     LINE      ---       ---     ---   #377
      C11F74H     LINE      ---       ---     ---   #378
      C11F78H     LINE      ---       ---     ---   #379
      C11F78H     LINE      ---       ---     ---   #381
L166 LINKER/LOCATER V5.25                                                             07/29/2021  08:44:04  PAGE 53


      C11F80H     LINE      ---       ---     ---   #383
      C11F92H     LINE      ---       ---     ---   #385
      C11F9AH     LINE      ---       ---     ---   #388
      C11FA0H     LINE      ---       ---     ---   #390
      C11FA6H     LINE      ---       ---     ---   #391
      C11FAAH     LINE      ---       ---     ---   #392
      C11FAEH     LINE      ---       ---     ---   #393
      C11FB2H     LINE      ---       ---     ---   #394
      C11FBCH     LINE      ---       ---     ---   #396
      C11FC4H     LINE      ---       ---     ---   #397
      C11FCAH     LINE      ---       ---     ---   #398
      C11FCEH     LINE      ---       ---     ---   #399
      C11FD4H     LINE      ---       ---     ---   #400
      C11FD6H     LINE      ---       ---     ---   #403
      C11FDAH     LINE      ---       ---     ---   #405
      C11FE4H     LINE      ---       ---     ---   #406
      C11FEAH     LINE      ---       ---     ---   #407
      C11FF0H     LINE      ---       ---     ---   #408
      C11FF4H     LINE      ---       ---     ---   #409
      C11FF4H     LINE      ---       ---     ---   #411
      C11FF6H     LINE      ---       ---     ---   #412
      C11FFAH     LINE      ---       ---     ---   #414
      C12016H     LINE      ---       ---     ---   #416
      C1201EH     LINE      ---       ---     ---   #419
      C12024H     LINE      ---       ---     ---   #421
      C12028H     LINE      ---       ---     ---   #422
      C1202EH     LINE      ---       ---     ---   #423
      C12032H     LINE      ---       ---     ---   #424
      C12034H     LINE      ---       ---     ---   #425
      C12042H     LINE      ---       ---     ---   #427
      C1204AH     LINE      ---       ---     ---   #428
      C12050H     LINE      ---       ---     ---   #429
      C12054H     LINE      ---       ---     ---   #430
      C12058H     LINE      ---       ---     ---   #431
      C1205EH     LINE      ---       ---     ---   #432
      C12060H     LINE      ---       ---     ---   #435
      C12064H     LINE      ---       ---     ---   #436
      C1206EH     LINE      ---       ---     ---   #437
      C12074H     LINE      ---       ---     ---   #438
      C1207AH     LINE      ---       ---     ---   #439
      C1207EH     LINE      ---       ---     ---   #440
      C1207EH     LINE      ---       ---     ---   #441
      C12080H     LINE      ---       ---     ---   #444
      C1209AH     LINE      ---       ---     ---   #446
      C1209EH     LINE      ---       ---     ---   #447
      C120A6H     LINE      ---       ---     ---   #448
      C120B0H     LINE      ---       ---     ---   #452
      C120B6H     LINE      ---       ---     ---   #453
      C120BAH     LINE      ---       ---     ---   #454
      C120C0H     LINE      ---       ---     ---   #455
      C120C0H     LINE      ---       ---     ---   #456
      C120C2H     LINE      ---       ---     ---   #459
      C120C8H     LINE      ---       ---     ---   #461
      C120C8H     LINE      ---       ---     ---   #464
      C120CEH     LINE      ---       ---     ---   #466
      C120CEH     LINE      ---       ---     ---   #468
      C120DCH     LINE      ---       ---     ---   #474
L166 LINKER/LOCATER V5.25                                                             07/29/2021  08:44:04  PAGE 54


      C120E4H     LINE      ---       ---     ---   #476
      C120E4H     LINE      ---       ---     ---   #477
      C120F2H     LINE      ---       ---     ---   #483
      C120FAH     LINE      ---       ---     ---   #486
      C120FAH     LINE      ---       ---     ---   #487
      C12100H     LINE      ---       ---     ---   #488
      C12100H     LINE      ---       ---     ---   #489
      ---         BLOCKEND  LVL=0     ---     ---   

      C1210AH     BLOCK     LVL=0     0010H   ---   pid_test
      000006H     SYMBOL    REG       ---     ---   pPID
      000009H     SYMBOL    REG       ---     ---   df1
      00000AH     SYMBOL    REG       ---     ---   df2
      C1210AH     LINE      ---       ---     ---   #495
      C1210CH     LINE      ---       ---     ---   #497
      C12110H     LINE      ---       ---     ---   #498
      C12114H     LINE      ---       ---     ---   #499
      C12118H     LINE      ---       ---     ---   #500
      ---         BLOCKEND  LVL=0     ---     ---   
      E005A3H     PUBLIC    VAR       ---     ---   PWMOEbyte
      E005A4H     PUBLIC    VAR       ---     ---   PWMOE2
      E005A5H     PUBLIC    VAR       ---     ---   PWMOE1
      E005A6H     SYMBOL    VAR       ---     ---   PowerCount
      E00240H     PUBLIC    VAR       ---     ---   DI29
      E00242H     PUBLIC    VAR       ---     ---   DI19
      E00244H     PUBLIC    VAR       ---     ---   DI28
      E00246H     PUBLIC    VAR       ---     ---   DI09
      E00248H     PUBLIC    VAR       ---     ---   DI18
      E0024AH     PUBLIC    VAR       ---     ---   DI27
      E0024CH     PUBLIC    VAR       ---     ---   DI08
      E0024EH     PUBLIC    VAR       ---     ---   DI17
      E00250H     PUBLIC    VAR       ---     ---   DI26
      E00252H     PUBLIC    VAR       ---     ---   DI07
      E00254H     PUBLIC    VAR       ---     ---   DI16
      E00256H     PUBLIC    VAR       ---     ---   DI25
      E00258H     PUBLIC    VAR       ---     ---   DI06
      E0025AH     PUBLIC    VAR       ---     ---   DI15
      E0025CH     PUBLIC    VAR       ---     ---   DI24
      E0025EH     PUBLIC    VAR       ---     ---   DI05
      E00260H     PUBLIC    VAR       ---     ---   DI14
      E00262H     PUBLIC    VAR       ---     ---   DI23
      E00264H     PUBLIC    VAR       ---     ---   DI32
      E00266H     PUBLIC    VAR       ---     ---   DI04
      E00268H     PUBLIC    VAR       ---     ---   DI13
      E0026AH     PUBLIC    VAR       ---     ---   DI22
      E0026CH     PUBLIC    VAR       ---     ---   DI31
      E0026EH     PUBLIC    VAR       ---     ---   DI03
      E00270H     PUBLIC    VAR       ---     ---   DI12
      E00272H     PUBLIC    VAR       ---     ---   DI21
      E00274H     PUBLIC    VAR       ---     ---   DI30
      E00276H     PUBLIC    VAR       ---     ---   DI02
      E00278H     PUBLIC    VAR       ---     ---   DI11
      E0027AH     PUBLIC    VAR       ---     ---   DI20
      E0027CH     PUBLIC    VAR       ---     ---   bcu_pos
      E0028EH     PUBLIC    VAR       ---     ---   DI01
      E00290H     PUBLIC    VAR       ---     ---   DI10
      E00292H     PUBLIC    VAR       ---     ---   bcu_key
L166 LINKER/LOCATER V5.25                                                             07/29/2021  08:44:04  PAGE 55


      E0029AH     PUBLIC    VAR       ---     ---   bcu_port
      E002D0H     PUBLIC    VAR       ---     ---   doutdata
      E002D2H     PUBLIC    VAR       ---     ---   STD_PRESS
      E002D4H     PUBLIC    VAR       ---     ---   dindata
      E002D8H     PUBLIC    VAR       ---     ---   bcu_emc
      E002DAH     PUBLIC    VAR       ---     ---   bcu_press
      E002EAH     PUBLIC    VAR       ---     ---   er_target
      E002ECH     PUBLIC    VAR       ---     ---   bcu_mode
      E002F0H     PUBLIC    VAR       ---     ---   bcu_punish
      E002FAH     PUBLIC    VAR       ---     ---   M_JIANYA_MAX
      E002FCH     PUBLIC    VAR       ---     ---   bcu_switch
      E00304H     PUBLIC    VAR       ---     ---   bcu_monitor
      E00306H     PUBLIC    VAR       ---     ---   M_ZHAG_MAX
      E00308H     PUBLIC    VAR       ---     ---   M_ENABLE_ALL
      E0030AH     PUBLIC    VAR       ---     ---   PO2_EBV
      E0030CH     PUBLIC    VAR       ---     ---   bcu_last_pos
      E0031EH     PUBLIC    VAR       ---     ---   key_value
      E0031FH     PUBLIC    VAR       ---     ---   switch_value
      C138A4H     PUBLIC    LABEL     ---     ---   BCU_Init
      E0057DH     SYMBOL    VAR       ---     ---   PowerCount

      C138A4H     BLOCK     LVL=0     0016H   ---   BCU_Init
      C138A4H     LINE      ---       ---     ---   #4
      C138A4H     LINE      ---       ---     ---   #8
      C138A4H     LINE      ---       ---     ---   #9
      C138A4H     LINE      ---       ---     ---   #10
      C138A4H     LINE      ---       ---     ---   #11
      C138A4H     LINE      ---       ---     ---   #12
      C138A4H     LINE      ---       ---     ---   #13
      C138A4H     LINE      ---       ---     ---   #14
      C138A4H     LINE      ---       ---     ---   #15
      C138A8H     LINE      ---       ---     ---   #16
      C138A8H     LINE      ---       ---     ---   #17
      C138A8H     LINE      ---       ---     ---   #18
      C138A8H     LINE      ---       ---     ---   #19
      C138B0H     LINE      ---       ---     ---   #21
      C138B8H     LINE      ---       ---     ---   #22
      ---         BLOCKEND  LVL=0     ---     ---   
      C1194AH     PUBLIC    LABEL     ---     ---   Get_Brake_Press
      C119A4H     PUBLIC    LABEL     ---     ---   Get_Brake_Mode
      C11362H     PUBLIC    LABEL     ---     ---   Get_Brake_Position
      C11A10H     PUBLIC    LABEL     ---     ---   Get_Input
      C118A2H     SYMBOL    LABEL     ---     ---   Get_AI_Value
      C111A6H     SYMBOL    LABEL     ---     ---   Bit_Filter
      C119C2H     SYMBOL    LABEL     ---     ---   Get_Punish_State
      C11250H     SYMBOL    LABEL     ---     ---   Input_Filter
      C11838H     SYMBOL    LABEL     ---     ---   Get_Toggle_Switch
      C11186H     SYMBOL    LABEL     ---     ---   Byte_To_Bit
      C118DCH     SYMBOL    LABEL     ---     ---   Get_Brake_Area_Value
      C11152H     SYMBOL    LABEL     ---     ---   Get_DI_Bit
      C117CEH     SYMBOL    LABEL     ---     ---   Get_Key_Value
      C04000H     SYMBOL    VAR       ---     ---   ?tpl?0006
      C04004H     SYMBOL    VAR       ---     ---   ?tpl?0005
      C0400CH     SYMBOL    VAR       ---     ---   ?tpl?0004
      C04010H     SYMBOL    VAR       ---     ---   ?tpl?0003
      C04018H     SYMBOL    VAR       ---     ---   ?tpl?0002
      C04038H     SYMBOL    VAR       ---     ---   ?tpl?0001
L166 LINKER/LOCATER V5.25                                                             07/29/2021  08:44:04  PAGE 56


      E00476H     SYMBOL    VAR       ---     ---   PowerCount

      C11152H     BLOCK     LVL=0     0034H   ---   Get_DI_Bit
      000008H     SYMBOL    REG       ---     ---   dindata_t
      000009H     SYMBOL    REG       ---     ---   sbit_t
      C11152H     BLOCK     LVL=1     0032H   ---   
      000084H     SYMBOL    REG       ---     ---   i
      00008EH     SYMBOL    REG       ---     ---   j
      ---         BLOCKEND  LVL=1     ---     ---   
      C11152H     LINE      ---       ---     ---   #6
      C11152H     LINE      ---       ---     ---   #7
      C11152H     LINE      ---       ---     ---   #8
      C11156H     LINE      ---       ---     ---   #10
      C11156H     LINE      ---       ---     ---   #12
      C11158H     LINE      ---       ---     ---   #14
      C11176H     LINE      ---       ---     ---   #15
      C1117EH     LINE      ---       ---     ---   #16
      C11184H     LINE      ---       ---     ---   #17
      ---         BLOCKEND  LVL=0     ---     ---   

      C11186H     BLOCK     LVL=0     0020H   ---   Byte_To_Bit
      000048H     SYMBOL    REG       ---     ---   dindata_t
      000009H     SYMBOL    REG       ---     ---   sbit_t
      00004AH     SYMBOL    REG       ---     ---   len
      C11186H     BLOCK     LVL=1     001EH   ---   
      00008EH     SYMBOL    REG       ---     ---   i
      ---         BLOCKEND  LVL=1     ---     ---   
      C11186H     LINE      ---       ---     ---   #20
      C11186H     LINE      ---       ---     ---   #21
      C11186H     LINE      ---       ---     ---   #22
      C11188H     LINE      ---       ---     ---   #24
      C1118AH     LINE      ---       ---     ---   #26
      C1119CH     LINE      ---       ---     ---   #27
      C111A4H     LINE      ---       ---     ---   #28
      ---         BLOCKEND  LVL=0     ---     ---   

      C111A6H     BLOCK     LVL=0     00AAH   ---   Bit_Filter
      000008H     SYMBOL    REG       ---     ---   fdata_t
      000009H     SYMBOL    REG       ---     ---   sdata_t
      00000AH     SYMBOL    REG       ---     ---   timer_t
      00000BH     SYMBOL    REG       ---     ---   filter_time
      00004CH     SYMBOL    REG       ---     ---   len
      C111A6H     BLOCK     LVL=1     00A8H   ---   
      00008EH     SYMBOL    REG       ---     ---   i
      ---         BLOCKEND  LVL=1     ---     ---   
      C111A6H     LINE      ---       ---     ---   #32
      C111A6H     LINE      ---       ---     ---   #33
      C111A6H     LINE      ---       ---     ---   #34
      C111A8H     LINE      ---       ---     ---   #36
      C111AAH     LINE      ---       ---     ---   #38
      C111B6H     LINE      ---       ---     ---   #40
      C111C0H     LINE      ---       ---     ---   #41
      C111CCH     LINE      ---       ---     ---   #42
      C111DCH     LINE      ---       ---     ---   #44
      C111EAH     LINE      ---       ---     ---   #45
      C111FAH     LINE      ---       ---     ---   #46
      C111FCH     LINE      ---       ---     ---   #50
L166 LINKER/LOCATER V5.25                                                             07/29/2021  08:44:04  PAGE 57


      C11204H     LINE      ---       ---     ---   #51
      C11214H     LINE      ---       ---     ---   #52
      C11226H     LINE      ---       ---     ---   #54
      C11236H     LINE      ---       ---     ---   #55
      C11246H     LINE      ---       ---     ---   #56
      C11246H     LINE      ---       ---     ---   #58
      C1124EH     LINE      ---       ---     ---   #59
      ---         BLOCKEND  LVL=0     ---     ---   

      C11250H     BLOCK     LVL=0     0112H   ---   Input_Filter
      000008H     SYMBOL    REG       ---     ---   sbit_t
      000009H     SYMBOL    REG       ---     ---   timer_t
      00000AH     SYMBOL    REG       ---     ---   filter_time
      00004BH     SYMBOL    REG       ---     ---   len
      C11250H     BLOCK     LVL=1     0110H   ---   
      E003D6H     SYMBOL    VAR       ---     ---   fbit_t
      ---         BLOCKEND  LVL=1     ---     ---   
      C11250H     LINE      ---       ---     ---   #63
      C11250H     LINE      ---       ---     ---   #64
      C11250H     LINE      ---       ---     ---   #67
      C11260H     LINE      ---       ---     ---   #69
      C11268H     LINE      ---       ---     ---   #70
      C11270H     LINE      ---       ---     ---   #71
      C11278H     LINE      ---       ---     ---   #72
      C11280H     LINE      ---       ---     ---   #73
      C11288H     LINE      ---       ---     ---   #74
      C11290H     LINE      ---       ---     ---   #75
      C11298H     LINE      ---       ---     ---   #76
      C112A0H     LINE      ---       ---     ---   #78
      C112A8H     LINE      ---       ---     ---   #79
      C112B0H     LINE      ---       ---     ---   #80
      C112B8H     LINE      ---       ---     ---   #81
      C112C0H     LINE      ---       ---     ---   #82
      C112C8H     LINE      ---       ---     ---   #83
      C112D0H     LINE      ---       ---     ---   #84
      C112D8H     LINE      ---       ---     ---   #85
      C112E0H     LINE      ---       ---     ---   #87
      C112E8H     LINE      ---       ---     ---   #88
      C112F0H     LINE      ---       ---     ---   #89
      C112F8H     LINE      ---       ---     ---   #90
      C11300H     LINE      ---       ---     ---   #91
      C11308H     LINE      ---       ---     ---   #92
      C11310H     LINE      ---       ---     ---   #93
      C11318H     LINE      ---       ---     ---   #94
      C11320H     LINE      ---       ---     ---   #96
      C11328H     LINE      ---       ---     ---   #97
      C11330H     LINE      ---       ---     ---   #98
      C11338H     LINE      ---       ---     ---   #99
      C11340H     LINE      ---       ---     ---   #100
      C11348H     LINE      ---       ---     ---   #101
      C11350H     LINE      ---       ---     ---   #102
      C11358H     LINE      ---       ---     ---   #103
      C11360H     LINE      ---       ---     ---   #104
      ---         BLOCKEND  LVL=0     ---     ---   

      C11362H     BLOCK     LVL=0     046CH   ---   Get_Brake_Position
      00000DH     SYMBOL    REG       ---     ---   buc_block_t
L166 LINKER/LOCATER V5.25                                                             07/29/2021  08:44:04  PAGE 58


      00000EH     SYMBOL    REG       ---     ---   buc_pos_t
      C1136EH     BLOCK     LVL=1     0456H   ---   
      000000H     SYMBOL    AUTO      ---     ---   in_bit_s
      000040H     SYMBOL    AUTO      ---     ---   io_filter_timer
      E00426H     SYMBOL    VAR       ---     ---   io_timer
      ---         BLOCKEND  LVL=1     ---     ---   
      C11362H     LINE      ---       ---     ---   #109
      C1136EH     LINE      ---       ---     ---   #110
      C1136EH     LINE      ---       ---     ---   #111
      C11380H     LINE      ---       ---     ---   #112
      C11396H     LINE      ---       ---     ---   #118
      C113A0H     LINE      ---       ---     ---   #119
      C113B4H     LINE      ---       ---     ---   #122
      C113C0H     LINE      ---       ---     ---   #124
      C113C4H     LINE      ---       ---     ---   #125
      C113CAH     LINE      ---       ---     ---   #126
      C113CEH     LINE      ---       ---     ---   #127
      C113D0H     LINE      ---       ---     ---   #128
      C113DCH     LINE      ---       ---     ---   #130
      C113E0H     LINE      ---       ---     ---   #131
      C113E6H     LINE      ---       ---     ---   #132
      C113ECH     LINE      ---       ---     ---   #133
      C113EEH     LINE      ---       ---     ---   #134
      C113FAH     LINE      ---       ---     ---   #136
      C113FEH     LINE      ---       ---     ---   #137
      C11402H     LINE      ---       ---     ---   #138
      C11408H     LINE      ---       ---     ---   #139
      C1140AH     LINE      ---       ---     ---   #142
      C1140EH     LINE      ---       ---     ---   #143
      C11412H     LINE      ---       ---     ---   #144
      C11416H     LINE      ---       ---     ---   #145
      C11416H     LINE      ---       ---     ---   #149
      C11428H     LINE      ---       ---     ---   #151
      C1142EH     LINE      ---       ---     ---   #152
      C11434H     LINE      ---       ---     ---   #153
      C11438H     LINE      ---       ---     ---   #154
      C1143AH     LINE      ---       ---     ---   #155
      C1144AH     LINE      ---       ---     ---   #157
      C11450H     LINE      ---       ---     ---   #158
      C11456H     LINE      ---       ---     ---   #159
      C1145CH     LINE      ---       ---     ---   #160
      C1145EH     LINE      ---       ---     ---   #161
      C1146EH     LINE      ---       ---     ---   #163
      C11474H     LINE      ---       ---     ---   #164
      C11478H     LINE      ---       ---     ---   #165
      C1147EH     LINE      ---       ---     ---   #166
      C11480H     LINE      ---       ---     ---   #169
      C11486H     LINE      ---       ---     ---   #170
      C1148AH     LINE      ---       ---     ---   #171
      C1148EH     LINE      ---       ---     ---   #172
      C1148EH     LINE      ---       ---     ---   #175
      C1149AH     LINE      ---       ---     ---   #177
      C114A0H     LINE      ---       ---     ---   #178
      C114A6H     LINE      ---       ---     ---   #179
      C114AAH     LINE      ---       ---     ---   #180
      C114ACH     LINE      ---       ---     ---   #181
      C114B6H     LINE      ---       ---     ---   #183
L166 LINKER/LOCATER V5.25                                                             07/29/2021  08:44:04  PAGE 59


      C114BCH     LINE      ---       ---     ---   #184
      C114C2H     LINE      ---       ---     ---   #185
      C114C8H     LINE      ---       ---     ---   #186
      C114CAH     LINE      ---       ---     ---   #187
      C114D4H     LINE      ---       ---     ---   #189
      C114DAH     LINE      ---       ---     ---   #190
      C114DEH     LINE      ---       ---     ---   #191
      C114E4H     LINE      ---       ---     ---   #192
      C114E6H     LINE      ---       ---     ---   #195
      C114ECH     LINE      ---       ---     ---   #196
      C114F0H     LINE      ---       ---     ---   #197
      C114F4H     LINE      ---       ---     ---   #198
      C114F4H     LINE      ---       ---     ---   #201
      C11500H     LINE      ---       ---     ---   #203
      C11506H     LINE      ---       ---     ---   #204
      C1150CH     LINE      ---       ---     ---   #205
      C11510H     LINE      ---       ---     ---   #206
      C11512H     LINE      ---       ---     ---   #207
      C1151CH     LINE      ---       ---     ---   #209
      C11522H     LINE      ---       ---     ---   #210
      C11528H     LINE      ---       ---     ---   #211
      C1152EH     LINE      ---       ---     ---   #212
      C11530H     LINE      ---       ---     ---   #213
      C1153AH     LINE      ---       ---     ---   #215
      C11540H     LINE      ---       ---     ---   #216
      C11544H     LINE      ---       ---     ---   #217
      C1154AH     LINE      ---       ---     ---   #218
      C1154CH     LINE      ---       ---     ---   #221
      C11552H     LINE      ---       ---     ---   #222
      C11556H     LINE      ---       ---     ---   #223
      C1155AH     LINE      ---       ---     ---   #224
      C1155AH     LINE      ---       ---     ---   #227
      C1156CH     LINE      ---       ---     ---   #229
      C11572H     LINE      ---       ---     ---   #230
      C11578H     LINE      ---       ---     ---   #231
      C1157CH     LINE      ---       ---     ---   #232
      C1157EH     LINE      ---       ---     ---   #233
      C1158EH     LINE      ---       ---     ---   #235
      C11594H     LINE      ---       ---     ---   #236
      C1159AH     LINE      ---       ---     ---   #237
      C115A0H     LINE      ---       ---     ---   #238
      C115A2H     LINE      ---       ---     ---   #239
      C115B2H     LINE      ---       ---     ---   #241
      C115B8H     LINE      ---       ---     ---   #242
      C115BCH     LINE      ---       ---     ---   #243
      C115C2H     LINE      ---       ---     ---   #244
      C115C4H     LINE      ---       ---     ---   #247
      C115CAH     LINE      ---       ---     ---   #248
      C115CEH     LINE      ---       ---     ---   #249
      C115D2H     LINE      ---       ---     ---   #250
      C115D2H     LINE      ---       ---     ---   #253
      C115DEH     LINE      ---       ---     ---   #255
      C115E4H     LINE      ---       ---     ---   #256
      C115EAH     LINE      ---       ---     ---   #257
      C115EEH     LINE      ---       ---     ---   #258
      C115F0H     LINE      ---       ---     ---   #259
      C115FAH     LINE      ---       ---     ---   #261
L166 LINKER/LOCATER V5.25                                                             07/29/2021  08:44:04  PAGE 60


      C11600H     LINE      ---       ---     ---   #262
      C11606H     LINE      ---       ---     ---   #263
      C1160CH     LINE      ---       ---     ---   #264
      C1160EH     LINE      ---       ---     ---   #265
      C11618H     LINE      ---       ---     ---   #267
      C1161EH     LINE      ---       ---     ---   #268
      C11622H     LINE      ---       ---     ---   #269
      C11628H     LINE      ---       ---     ---   #270
      C1162AH     LINE      ---       ---     ---   #273
      C11630H     LINE      ---       ---     ---   #274
      C11634H     LINE      ---       ---     ---   #275
      C11638H     LINE      ---       ---     ---   #276
      C11638H     LINE      ---       ---     ---   #279
      C11648H     LINE      ---       ---     ---   #281
      C1164CH     LINE      ---       ---     ---   #282
      C11652H     LINE      ---       ---     ---   #283
      C11656H     LINE      ---       ---     ---   #284
      C1165AH     LINE      ---       ---     ---   #285
      C1165EH     LINE      ---       ---     ---   #286
      C11662H     LINE      ---       ---     ---   #287
      C11666H     LINE      ---       ---     ---   #288
      C11678H     LINE      ---       ---     ---   #290
      C1167CH     LINE      ---       ---     ---   #291
      C11682H     LINE      ---       ---     ---   #292
      C11688H     LINE      ---       ---     ---   #293
      C1168CH     LINE      ---       ---     ---   #294
      C11690H     LINE      ---       ---     ---   #295
      C11694H     LINE      ---       ---     ---   #296
      C11696H     LINE      ---       ---     ---   #297
      C116A8H     LINE      ---       ---     ---   #299
      C116ACH     LINE      ---       ---     ---   #300
      C116B0H     LINE      ---       ---     ---   #301
      C116B6H     LINE      ---       ---     ---   #302
      C116BCH     LINE      ---       ---     ---   #303
      C116C0H     LINE      ---       ---     ---   #304
      C116C4H     LINE      ---       ---     ---   #305
      C116C6H     LINE      ---       ---     ---   #306
      C116D8H     LINE      ---       ---     ---   #308
      C116DCH     LINE      ---       ---     ---   #309
      C116E0H     LINE      ---       ---     ---   #310
      C116E4H     LINE      ---       ---     ---   #311
      C116EAH     LINE      ---       ---     ---   #312
      C116F0H     LINE      ---       ---     ---   #313
      C116F4H     LINE      ---       ---     ---   #314
      C116F6H     LINE      ---       ---     ---   #315
      C11708H     LINE      ---       ---     ---   #317
      C1170CH     LINE      ---       ---     ---   #318
      C11710H     LINE      ---       ---     ---   #319
      C11714H     LINE      ---       ---     ---   #320
      C11718H     LINE      ---       ---     ---   #321
      C1171EH     LINE      ---       ---     ---   #322
      C11724H     LINE      ---       ---     ---   #323
      C11726H     LINE      ---       ---     ---   #324
      C11738H     LINE      ---       ---     ---   #326
      C1173CH     LINE      ---       ---     ---   #327
      C11740H     LINE      ---       ---     ---   #328
      C11744H     LINE      ---       ---     ---   #329
L166 LINKER/LOCATER V5.25                                                             07/29/2021  08:44:04  PAGE 61


      C11748H     LINE      ---       ---     ---   #330
      C1174CH     LINE      ---       ---     ---   #331
      C11752H     LINE      ---       ---     ---   #332
      C11754H     LINE      ---       ---     ---   #335
      C11758H     LINE      ---       ---     ---   #336
      C1175CH     LINE      ---       ---     ---   #337
      C11760H     LINE      ---       ---     ---   #338
      C11764H     LINE      ---       ---     ---   #339
      C11768H     LINE      ---       ---     ---   #340
      C1176CH     LINE      ---       ---     ---   #341
      C1176CH     LINE      ---       ---     ---   #344
      C11772H     LINE      ---       ---     ---   #346
      C11778H     LINE      ---       ---     ---   #347
      C1177EH     LINE      ---       ---     ---   #348
      C11782H     LINE      ---       ---     ---   #349
      C11784H     LINE      ---       ---     ---   #350
      C1178AH     LINE      ---       ---     ---   #352
      C11790H     LINE      ---       ---     ---   #353
      C11796H     LINE      ---       ---     ---   #354
      C1179CH     LINE      ---       ---     ---   #355
      C1179EH     LINE      ---       ---     ---   #356
      C117A4H     LINE      ---       ---     ---   #358
      C117AAH     LINE      ---       ---     ---   #359
      C117AEH     LINE      ---       ---     ---   #360
      C117B4H     LINE      ---       ---     ---   #361
      C117B6H     LINE      ---       ---     ---   #364
      C117BCH     LINE      ---       ---     ---   #365
      C117C0H     LINE      ---       ---     ---   #366
      C117C4H     LINE      ---       ---     ---   #367
      C117C4H     LINE      ---       ---     ---   #368
      ---         BLOCKEND  LVL=0     ---     ---   

      C117CEH     BLOCK     LVL=0     006AH   ---   Get_Key_Value
      000048H     SYMBOL    REG       ---     ---   skey_t
      000002H     SYMBOL    REG       ---     ---   key_t
      C117D4H     BLOCK     LVL=1     005EH   ---   
      000000H     SYMBOL    AUTO      ---     ---   s_key
      E0046EH     SYMBOL    VAR       ---     ---   f_key
      000008H     SYMBOL    AUTO      ---     ---   filter_timer
      E00466H     SYMBOL    VAR       ---     ---   key_timer
      ---         BLOCKEND  LVL=1     ---     ---   
      C117CEH     LINE      ---       ---     ---   #373
      C117D4H     LINE      ---       ---     ---   #374
      C117D4H     LINE      ---       ---     ---   #375
      C117E4H     LINE      ---       ---     ---   #377
      C117F6H     LINE      ---       ---     ---   #380
      C11802H     LINE      ---       ---     ---   #381
      C11816H     LINE      ---       ---     ---   #383
      C1181AH     LINE      ---       ---     ---   #384
      C11822H     LINE      ---       ---     ---   #385
      C1182AH     LINE      ---       ---     ---   #386
      C11832H     LINE      ---       ---     ---   #387
      ---         BLOCKEND  LVL=0     ---     ---   

      C11838H     BLOCK     LVL=0     006AH   ---   Get_Toggle_Switch
      000048H     SYMBOL    REG       ---     ---   data_t
      000002H     SYMBOL    REG       ---     ---   switch_t
L166 LINKER/LOCATER V5.25                                                             07/29/2021  08:44:04  PAGE 62


      C1183EH     BLOCK     LVL=1     005EH   ---   
      000000H     SYMBOL    AUTO      ---     ---   s_switch
      E0041EH     SYMBOL    VAR       ---     ---   f_switch
      000008H     SYMBOL    AUTO      ---     ---   filter_timer
      E00416H     SYMBOL    VAR       ---     ---   switch_timer
      ---         BLOCKEND  LVL=1     ---     ---   
      C11838H     LINE      ---       ---     ---   #391
      C1183EH     LINE      ---       ---     ---   #392
      C1183EH     LINE      ---       ---     ---   #393
      C1184EH     LINE      ---       ---     ---   #396
      C11860H     LINE      ---       ---     ---   #399
      C1186CH     LINE      ---       ---     ---   #400
      C11880H     LINE      ---       ---     ---   #402
      C11884H     LINE      ---       ---     ---   #403
      C1188CH     LINE      ---       ---     ---   #404
      C11894H     LINE      ---       ---     ---   #405
      C1189CH     LINE      ---       ---     ---   #406
      ---         BLOCKEND  LVL=0     ---     ---   

      C118A2H     BLOCK     LVL=0     003AH   ---   Get_AI_Value
      000008H     SYMBOL    REG       ---     ---   adc_data
      C118A2H     BLOCK     LVL=1     0038H   ---   
      000009H     SYMBOL    REG       ---     ---   conv_value
      ---         BLOCKEND  LVL=1     ---     ---   
      C118A2H     LINE      ---       ---     ---   #411
      C118A2H     LINE      ---       ---     ---   #412
      C118A2H     LINE      ---       ---     ---   #413
      C118A4H     LINE      ---       ---     ---   #415
      C118AAH     LINE      ---       ---     ---   #416
      C118B0H     LINE      ---       ---     ---   #417
      C118B6H     LINE      ---       ---     ---   #418
      C118BAH     LINE      ---       ---     ---   #419
      C118DAH     LINE      ---       ---     ---   #421
      C118DAH     LINE      ---       ---     ---   #422
      ---         BLOCKEND  LVL=0     ---     ---   

      C118DCH     BLOCK     LVL=0     006EH   ---   Get_Brake_Area_Value
      000009H     SYMBOL    REG       ---     ---   adc_data
      C118DEH     BLOCK     LVL=1     006AH   ---   
      00000AH     SYMBOL    REG       ---     ---   conv_value
      ---         BLOCKEND  LVL=1     ---     ---   
      C118DCH     LINE      ---       ---     ---   #426
      C118DEH     LINE      ---       ---     ---   #427
      C118DEH     LINE      ---       ---     ---   #428
      C118E0H     LINE      ---       ---     ---   #430
      C118E6H     LINE      ---       ---     ---   #431
      C118EAH     LINE      ---       ---     ---   #432
      C11946H     LINE      ---       ---     ---   #434
      C11948H     LINE      ---       ---     ---   #435
      ---         BLOCKEND  LVL=0     ---     ---   

      C1194AH     BLOCK     LVL=0     005AH   ---   Get_Brake_Press
      00000EH     SYMBOL    REG       ---     ---   aindata_t
      00000DH     SYMBOL    REG       ---     ---   bcu_press_t
      C1194AH     LINE      ---       ---     ---   #439
      C11952H     LINE      ---       ---     ---   #441
      C11958H     LINE      ---       ---     ---   #442
L166 LINKER/LOCATER V5.25                                                             07/29/2021  08:44:04  PAGE 63


      C11962H     LINE      ---       ---     ---   #443
      C1196CH     LINE      ---       ---     ---   #444
      C11976H     LINE      ---       ---     ---   #445
      C11980H     LINE      ---       ---     ---   #447
      C1198AH     LINE      ---       ---     ---   #448
      C11994H     LINE      ---       ---     ---   #449
      C1199EH     LINE      ---       ---     ---   #450
      ---         BLOCKEND  LVL=0     ---     ---   

      C119A4H     BLOCK     LVL=0     001EH   ---   Get_Brake_Mode
      000008H     SYMBOL    REG       ---     ---   bcu_mode_t
      C119A4H     LINE      ---       ---     ---   #472
      C119A4H     LINE      ---       ---     ---   #474
      C119AAH     LINE      ---       ---     ---   #476
      C119B0H     LINE      ---       ---     ---   #477
      C119B4H     LINE      ---       ---     ---   #478
      C119B6H     LINE      ---       ---     ---   #481
      C119BAH     LINE      ---       ---     ---   #482
      C119C0H     LINE      ---       ---     ---   #484
      C119C0H     LINE      ---       ---     ---   #485
      ---         BLOCKEND  LVL=0     ---     ---   

      C119C2H     BLOCK     LVL=0     004EH   ---   Get_Punish_State
      000008H     SYMBOL    REG       ---     ---   punish_t
      C119C2H     LINE      ---       ---     ---   #693
      C119C2H     LINE      ---       ---     ---   #695
      C119C8H     LINE      ---       ---     ---   #696
      C119CEH     LINE      ---       ---     ---   #698
      C119D2H     LINE      ---       ---     ---   #700
      C119D8H     LINE      ---       ---     ---   #701
      C119E0H     LINE      ---       ---     ---   #703
      C119E6H     LINE      ---       ---     ---   #705
      C119ECH     LINE      ---       ---     ---   #706
      C119F4H     LINE      ---       ---     ---   #708
      C119FAH     LINE      ---       ---     ---   #710
      C11A00H     LINE      ---       ---     ---   #711
      C11A08H     LINE      ---       ---     ---   #713
      C11A0EH     LINE      ---       ---     ---   #714
      ---         BLOCKEND  LVL=0     ---     ---   

      C11A10H     BLOCK     LVL=0     0046H   ---   Get_Input
      C11A10H     LINE      ---       ---     ---   #717
      C11A10H     LINE      ---       ---     ---   #719
      C11A14H     LINE      ---       ---     ---   #720
      C11A18H     LINE      ---       ---     ---   #721
      C11A24H     LINE      ---       ---     ---   #722
      C11A2AH     LINE      ---       ---     ---   #723
      C11A36H     LINE      ---       ---     ---   #724
      C11A42H     LINE      ---       ---     ---   #725
      C11A4EH     LINE      ---       ---     ---   #726
      C11A54H     LINE      ---       ---     ---   #727
      ---         BLOCKEND  LVL=0     ---     ---   
      C13846H     PUBLIC    LABEL     ---     ---   Get_Check_State
      C13868H     PUBLIC    LABEL     ---     ---   BCU_Self_Check
      E00598H     PUBLIC    VAR       ---     ---   check_busy
      E0059AH     PUBLIC    VAR       ---     ---   bcu_check_step
      E0059BH     PUBLIC    VAR       ---     ---   funcion_num
L166 LINKER/LOCATER V5.25                                                             07/29/2021  08:44:04  PAGE 64


      E0059CH     SYMBOL    VAR       ---     ---   PowerCount

      C13846H     BLOCK     LVL=0     0022H   ---   Get_Check_State
      000008H     SYMBOL    REG       ---     ---   buc_block_t
      C13846H     LINE      ---       ---     ---   #14
      C13846H     LINE      ---       ---     ---   #17
      C13860H     LINE      ---       ---     ---   #18
      C13864H     LINE      ---       ---     ---   #20
      C13866H     LINE      ---       ---     ---   #21
      ---         BLOCKEND  LVL=0     ---     ---   

      C13868H     BLOCK     LVL=0     0002H   ---   BCU_Self_Check
      C13868H     LINE      ---       ---     ---   #26
      C13868H     LINE      ---       ---     ---   #652
      ---         BLOCKEND  LVL=0     ---     ---   
      C13656H     PUBLIC    LABEL     ---     ---   Logic_All_Pre
      C1364EH     PUBLIC    LABEL     ---     ---   Monitor_Logic
      C135A6H     PUBLIC    LABEL     ---     ---   D_Run_Logic
      C13558H     PUBLIC    LABEL     ---     ---   D_Oc_Logic
      C1362CH     PUBLIC    LABEL     ---     ---   D_Mul_Logic
      C1360CH     PUBLIC    LABEL     ---     ---   D_Res_Logic
      C1360AH     PUBLIC    LABEL     ---     ---   D_Brk_Logic
      C1364CH     PUBLIC    LABEL     ---     ---   D_Emc_Logic
      C13654H     PUBLIC    LABEL     ---     ---   BCU_Slave_Logic
      C13652H     PUBLIC    LABEL     ---     ---   BCU_Pusher_Logic
      E0059EH     PUBLIC    VAR       ---     ---   run_flag
      E005A2H     SYMBOL    VAR       ---     ---   PowerCount

      C13558H     BLOCK     LVL=0     004EH   ---   D_Oc_Logic
      C13558H     LINE      ---       ---     ---   #7
      C13558H     LINE      ---       ---     ---   #9
      C1355EH     LINE      ---       ---     ---   #10
      C13564H     LINE      ---       ---     ---   #12
      C1357CH     LINE      ---       ---     ---   #13
      C1359CH     LINE      ---       ---     ---   #15
      C135A4H     LINE      ---       ---     ---   #16
      ---         BLOCKEND  LVL=0     ---     ---   

      C135A6H     BLOCK     LVL=0     0064H   ---   D_Run_Logic
      C135A6H     LINE      ---       ---     ---   #19
      C135A6H     LINE      ---       ---     ---   #21
      C135B0H     LINE      ---       ---     ---   #22
      C135B6H     LINE      ---       ---     ---   #24
      C135BCH     LINE      ---       ---     ---   #26
      C135C2H     LINE      ---       ---     ---   #27
      C135C8H     LINE      ---       ---     ---   #29
      C135E0H     LINE      ---       ---     ---   #30
      C13600H     LINE      ---       ---     ---   #32
      C13608H     LINE      ---       ---     ---   #33
      ---         BLOCKEND  LVL=0     ---     ---   

      C1360AH     BLOCK     LVL=0     0002H   ---   D_Brk_Logic
      C1360AH     LINE      ---       ---     ---   #36
      C1360AH     LINE      ---       ---     ---   #39
      ---         BLOCKEND  LVL=0     ---     ---   

      C1360CH     BLOCK     LVL=0     0020H   ---   D_Res_Logic
L166 LINKER/LOCATER V5.25                                                             07/29/2021  08:44:04  PAGE 65


      C1360CH     BLOCK     LVL=1     001EH   ---   
      E005A1H     SYMBOL    VAR       ---     ---   res_time
      ---         BLOCKEND  LVL=1     ---     ---   
      C1360CH     LINE      ---       ---     ---   #42
      C1360CH     LINE      ---       ---     ---   #43
      C1360CH     LINE      ---       ---     ---   #46
      C13612H     LINE      ---       ---     ---   #48
      C13620H     LINE      ---       ---     ---   #50
      C13624H     LINE      ---       ---     ---   #51
      C1362AH     LINE      ---       ---     ---   #52
      C1362AH     LINE      ---       ---     ---   #57
      C1362AH     LINE      ---       ---     ---   #58
      ---         BLOCKEND  LVL=0     ---     ---   

      C1362CH     BLOCK     LVL=0     0020H   ---   D_Mul_Logic
      C1362CH     BLOCK     LVL=1     001EH   ---   
      E005A0H     SYMBOL    VAR       ---     ---   mul_time
      ---         BLOCKEND  LVL=1     ---     ---   
      C1362CH     LINE      ---       ---     ---   #60
      C1362CH     LINE      ---       ---     ---   #61
      C1362CH     LINE      ---       ---     ---   #64
      C13632H     LINE      ---       ---     ---   #66
      C13640H     LINE      ---       ---     ---   #68
      C13644H     LINE      ---       ---     ---   #69
      C1364AH     LINE      ---       ---     ---   #70
      C1364AH     LINE      ---       ---     ---   #75
      C1364AH     LINE      ---       ---     ---   #76
      ---         BLOCKEND  LVL=0     ---     ---   

      C1364CH     BLOCK     LVL=0     0002H   ---   D_Emc_Logic
      C1364CH     LINE      ---       ---     ---   #80
      C1364CH     LINE      ---       ---     ---   #83
      ---         BLOCKEND  LVL=0     ---     ---   

      C1364EH     BLOCK     LVL=0     0004H   ---   Monitor_Logic
      C1364EH     LINE      ---       ---     ---   #86
      C1364EH     LINE      ---       ---     ---   #88
      C13650H     LINE      ---       ---     ---   #89
      ---         BLOCKEND  LVL=0     ---     ---   

      C13652H     BLOCK     LVL=0     0002H   ---   BCU_Pusher_Logic
      C13652H     LINE      ---       ---     ---   #93
      C13652H     LINE      ---       ---     ---   #96
      ---         BLOCKEND  LVL=0     ---     ---   

      C13654H     BLOCK     LVL=0     0002H   ---   BCU_Slave_Logic
      C13654H     LINE      ---       ---     ---   #229
      C13654H     LINE      ---       ---     ---   #232
      ---         BLOCKEND  LVL=0     ---     ---   

      C13656H     BLOCK     LVL=0     0002H   ---   Logic_All_Pre
      C13656H     LINE      ---       ---     ---   #240
      C13656H     LINE      ---       ---     ---   #555
      ---         BLOCKEND  LVL=0     ---     ---   
      C13658H     PUBLIC    LABEL     ---     ---   ?C_ULDIV

      C13658H     BLOCK     LVL=0     0092H   ---   ?C_ULDIV
L166 LINKER/LOCATER V5.25                                                             07/29/2021  08:44:04  PAGE 66


      ---         BLOCKEND  LVL=0     ---     ---   
      C136EAH     PUBLIC    LABEL     ---     ---   ?C_SLDIV

      C136EAH     BLOCK     LVL=0     0036H   ---   ?C_SLDIV
      ---         BLOCKEND  LVL=0     ---     ---   
      C1041AH     PUBLIC    VAR       ---     ---   ?C_ENDINIT



FUNCTION REGISTER MASKS


FUNCTION . . . . . . . . . . . . REG MASK
=========================================


Program Size: data=1982(near=1982) const=1286(near=136) code=13876
L166 RUN COMPLETE.  0 WARNING(S),  0 ERROR(S)
